
out.elf:     file format elf32-tradlittlemips


Disassembly of section .reset:

bd007000 <_reset>:
bd007000:	0f401c02 	jal	bd007008 <_startup>
bd007004:	00000000 	nop

bd007008 <_startup>:
bd007008:	401a6000 	mfc0	k0,c0_status
bd00700c:	7f5a04c0 	ext	k0,k0,0x13,0x1
bd007010:	13400005 	beqz	k0,bd007028 <_no_nmi>
bd007014:	00000000 	nop
bd007018:	3c1a9d01 	lui	k0,0x9d01
bd00701c:	275a86a0 	addiu	k0,k0,-31072
bd007020:	03400008 	jr	k0
bd007024:	00000000 	nop

bd007028 <_no_nmi>:
bd007028:	3c1da001 	lui	sp,0xa001
bd00702c:	27bdfff0 	addiu	sp,sp,-16
bd007030:	3c1ca000 	lui	gp,0xa000
bd007034:	279c7ff0 	addiu	gp,gp,32752
bd007038:	3c089d01 	lui	t0,0x9d01
bd00703c:	250886e4 	addiu	t0,t0,-31004
bd007040:	0100f809 	jalr	t0
bd007044:	00000000 	nop
bd007048:	3c089d01 	lui	t0,0x9d01
bd00704c:	250883c8 	addiu	t0,t0,-31800
bd007050:	0100f809 	jalr	t0
bd007054:	00000000 	nop
bd007058:	3c090000 	lui	t1,0x0
bd00705c:	25290000 	addiu	t1,t1,0
bd007060:	11200010 	beqz	t1,bd0070a4 <_ramfunc_done>
bd007064:	00000000 	nop
bd007068:	3c090001 	lui	t1,0x1
bd00706c:	25290000 	addiu	t1,t1,0
bd007070:	3c0abf88 	lui	t2,0xbf88
bd007074:	254a2010 	addiu	t2,t2,8208
bd007078:	ad490000 	sw	t1,0(t2)
bd00707c:	3c090001 	lui	t1,0x1
bd007080:	25290000 	addiu	t1,t1,0
bd007084:	3c0abf88 	lui	t2,0xbf88
bd007088:	254a2020 	addiu	t2,t2,8224
bd00708c:	ad490000 	sw	t1,0(t2)
bd007090:	3c090001 	lui	t1,0x1
bd007094:	25290000 	addiu	t1,t1,0
bd007098:	3c0abf88 	lui	t2,0xbf88
bd00709c:	254a2030 	addiu	t2,t2,8240
bd0070a0:	ad490000 	sw	t1,0(t2)

bd0070a4 <_ramfunc_done>:
bd0070a4:	40804800 	mtc0	zero,c0_count
bd0070a8:	240affff 	li	t2,-1
bd0070ac:	408a5800 	mtc0	t2,c0_compare
bd0070b0:	3c080040 	lui	t0,0x40
bd0070b4:	400a6000 	mfc0	t2,c0_status
bd0070b8:	010a5025 	or	t2,t0,t2
bd0070bc:	408a6000 	mtc0	t2,c0_status
bd0070c0:	3c099d00 	lui	t1,0x9d00
bd0070c4:	25296000 	addiu	t1,t1,24576
bd0070c8:	000000c0 	ehb
bd0070cc:	40897801 	mtc0	t1,c0_ebase
bd0070d0:	3c090000 	lui	t1,0x0
bd0070d4:	25290001 	addiu	t1,t1,1
bd0070d8:	240a0000 	li	t2,0
bd0070dc:	7d2a4944 	ins	t2,t1,0x5,0x5
bd0070e0:	408a6001 	mtc0	t2,c0_intctl
bd0070e4:	3c090080 	lui	t1,0x80
bd0070e8:	40896800 	mtc0	t1,c0_cause
bd0070ec:	40088000 	mfc0	t0,c0_config
bd0070f0:	7d090580 	ext	t1,t0,0x16,0x1
bd0070f4:	00094c40 	sll	t1,t1,0x11
bd0070f8:	40086000 	mfc0	t0,c0_status
bd0070fc:	3c010058 	lui	at,0x58
bd007100:	01014024 	and	t0,t0,at
bd007104:	01284025 	or	t0,t1,t0
bd007108:	40886000 	mtc0	t0,c0_status
bd00710c:	000000c0 	ehb
bd007110:	3c089d01 	lui	t0,0x9d01
bd007114:	250886ec 	addiu	t0,t0,-30996
bd007118:	0100f809 	jalr	t0
bd00711c:	00000000 	nop
bd007120:	40086000 	mfc0	t0,c0_status
bd007124:	3c01ffbf 	lui	at,0xffbf
bd007128:	3421ffff 	ori	at,at,0xffff
bd00712c:	01014024 	and	t0,t0,at
bd007130:	40886000 	mtc0	t0,c0_status
bd007134:	30840000 	andi	a0,a0,0x0
bd007138:	30a50000 	andi	a1,a1,0x0
bd00713c:	3c089d01 	lui	t0,0x9d01
bd007140:	250884b4 	addiu	t0,t0,-31564
bd007144:	01000008 	jr	t0
bd007148:	00000000 	nop

Disassembly of section .bev_excpt:

bfc07380 <_bev_exception>:
bfc07380:	3c1a9d01 	lui	k0,0x9d01
bfc07384:	275a8508 	addiu	k0,k0,-31480
bfc07388:	03400008 	jr	k0
bfc0738c:	00000000 	nop

Disassembly of section .app_excpt:

9d006180 <_gen_exception>:
9d006180:	3c1a9d01 	lui	k0,0x9d01
9d006184:	275a8254 	addiu	k0,k0,-32172
9d006188:	03400008 	jr	k0
9d00618c:	00000000 	nop

Disassembly of section .vector_0:

9d006200 <__vector_dispatch_0>:
9d006200:	0b402166 	j	9d008598 <_DefaultInterrupt>
9d006204:	00000000 	nop

Disassembly of section .vector_1:

9d006220 <__vector_dispatch_1>:
9d006220:	0b402166 	j	9d008598 <_DefaultInterrupt>
9d006224:	00000000 	nop

Disassembly of section .vector_2:

9d006240 <__vector_dispatch_2>:
9d006240:	0b402166 	j	9d008598 <_DefaultInterrupt>
9d006244:	00000000 	nop

Disassembly of section .vector_3:

9d006260 <__vector_dispatch_3>:
9d006260:	0b402166 	j	9d008598 <_DefaultInterrupt>
9d006264:	00000000 	nop

Disassembly of section .vector_4:

9d006280 <__vector_dispatch_4>:
9d006280:	0b402166 	j	9d008598 <_DefaultInterrupt>
9d006284:	00000000 	nop

Disassembly of section .vector_5:

9d0062a0 <__vector_dispatch_5>:
9d0062a0:	0b402166 	j	9d008598 <_DefaultInterrupt>
9d0062a4:	00000000 	nop

Disassembly of section .vector_6:

9d0062c0 <__vector_dispatch_6>:
9d0062c0:	0b402166 	j	9d008598 <_DefaultInterrupt>
9d0062c4:	00000000 	nop

Disassembly of section .vector_7:

9d0062e0 <__vector_dispatch_7>:
9d0062e0:	0b402166 	j	9d008598 <_DefaultInterrupt>
9d0062e4:	00000000 	nop

Disassembly of section .vector_8:

9d006300 <__vector_dispatch_8>:
9d006300:	0b401ff7 	j	9d007fdc <Controller>
9d006304:	00000000 	nop

Disassembly of section .vector_9:

9d006320 <__vector_dispatch_9>:
9d006320:	0b402166 	j	9d008598 <_DefaultInterrupt>
9d006324:	00000000 	nop

Disassembly of section .vector_10:

9d006340 <__vector_dispatch_10>:
9d006340:	0b402166 	j	9d008598 <_DefaultInterrupt>
9d006344:	00000000 	nop

Disassembly of section .vector_11:

9d006360 <__vector_dispatch_11>:
9d006360:	0b402166 	j	9d008598 <_DefaultInterrupt>
9d006364:	00000000 	nop

Disassembly of section .vector_12:

9d006380 <__vector_dispatch_12>:
9d006380:	0b402166 	j	9d008598 <_DefaultInterrupt>
9d006384:	00000000 	nop

Disassembly of section .vector_13:

9d0063a0 <__vector_dispatch_13>:
9d0063a0:	0b402166 	j	9d008598 <_DefaultInterrupt>
9d0063a4:	00000000 	nop

Disassembly of section .vector_14:

9d0063c0 <__vector_dispatch_14>:
9d0063c0:	0b402166 	j	9d008598 <_DefaultInterrupt>
9d0063c4:	00000000 	nop

Disassembly of section .vector_15:

9d0063e0 <__vector_dispatch_15>:
9d0063e0:	0b402166 	j	9d008598 <_DefaultInterrupt>
9d0063e4:	00000000 	nop

Disassembly of section .vector_16:

9d006400 <__vector_dispatch_16>:
9d006400:	0b402166 	j	9d008598 <_DefaultInterrupt>
9d006404:	00000000 	nop

Disassembly of section .vector_17:

9d006420 <__vector_dispatch_17>:
9d006420:	0b402166 	j	9d008598 <_DefaultInterrupt>
9d006424:	00000000 	nop

Disassembly of section .vector_18:

9d006440 <__vector_dispatch_18>:
9d006440:	0b402166 	j	9d008598 <_DefaultInterrupt>
9d006444:	00000000 	nop

Disassembly of section .vector_19:

9d006460 <__vector_dispatch_19>:
9d006460:	0b402166 	j	9d008598 <_DefaultInterrupt>
9d006464:	00000000 	nop

Disassembly of section .vector_20:

9d006480 <__vector_dispatch_20>:
9d006480:	0b402166 	j	9d008598 <_DefaultInterrupt>
9d006484:	00000000 	nop

Disassembly of section .vector_21:

9d0064a0 <__vector_dispatch_21>:
9d0064a0:	0b402166 	j	9d008598 <_DefaultInterrupt>
9d0064a4:	00000000 	nop

Disassembly of section .vector_22:

9d0064c0 <__vector_dispatch_22>:
9d0064c0:	0b402166 	j	9d008598 <_DefaultInterrupt>
9d0064c4:	00000000 	nop

Disassembly of section .vector_23:

9d0064e0 <__vector_dispatch_23>:
9d0064e0:	0b402166 	j	9d008598 <_DefaultInterrupt>
9d0064e4:	00000000 	nop

Disassembly of section .vector_24:

9d006500 <__vector_dispatch_24>:
9d006500:	0b402166 	j	9d008598 <_DefaultInterrupt>
9d006504:	00000000 	nop

Disassembly of section .vector_25:

9d006520 <__vector_dispatch_25>:
9d006520:	0b402166 	j	9d008598 <_DefaultInterrupt>
9d006524:	00000000 	nop

Disassembly of section .vector_26:

9d006540 <__vector_dispatch_26>:
9d006540:	0b402166 	j	9d008598 <_DefaultInterrupt>
9d006544:	00000000 	nop

Disassembly of section .vector_27:

9d006560 <__vector_dispatch_27>:
9d006560:	0b402166 	j	9d008598 <_DefaultInterrupt>
9d006564:	00000000 	nop

Disassembly of section .vector_28:

9d006580 <__vector_dispatch_28>:
9d006580:	0b402166 	j	9d008598 <_DefaultInterrupt>
9d006584:	00000000 	nop

Disassembly of section .vector_29:

9d0065a0 <__vector_dispatch_29>:
9d0065a0:	0b402166 	j	9d008598 <_DefaultInterrupt>
9d0065a4:	00000000 	nop

Disassembly of section .vector_30:

9d0065c0 <__vector_dispatch_30>:
9d0065c0:	0b402166 	j	9d008598 <_DefaultInterrupt>
9d0065c4:	00000000 	nop

Disassembly of section .vector_31:

9d0065e0 <__vector_dispatch_31>:
9d0065e0:	0b402166 	j	9d008598 <_DefaultInterrupt>
9d0065e4:	00000000 	nop

Disassembly of section .vector_32:

9d006600 <__vector_dispatch_32>:
9d006600:	0b402166 	j	9d008598 <_DefaultInterrupt>
9d006604:	00000000 	nop

Disassembly of section .vector_33:

9d006620 <__vector_dispatch_33>:
9d006620:	0b402166 	j	9d008598 <_DefaultInterrupt>
9d006624:	00000000 	nop

Disassembly of section .vector_34:

9d006640 <__vector_dispatch_34>:
9d006640:	0b402166 	j	9d008598 <_DefaultInterrupt>
9d006644:	00000000 	nop

Disassembly of section .vector_35:

9d006660 <__vector_dispatch_35>:
9d006660:	0b402166 	j	9d008598 <_DefaultInterrupt>
9d006664:	00000000 	nop

Disassembly of section .vector_36:

9d006680 <__vector_dispatch_36>:
9d006680:	0b402166 	j	9d008598 <_DefaultInterrupt>
9d006684:	00000000 	nop

Disassembly of section .vector_37:

9d0066a0 <__vector_dispatch_37>:
9d0066a0:	0b402166 	j	9d008598 <_DefaultInterrupt>
9d0066a4:	00000000 	nop

Disassembly of section .vector_38:

9d0066c0 <__vector_dispatch_38>:
9d0066c0:	0b402166 	j	9d008598 <_DefaultInterrupt>
9d0066c4:	00000000 	nop

Disassembly of section .vector_39:

9d0066e0 <__vector_dispatch_39>:
9d0066e0:	0b402166 	j	9d008598 <_DefaultInterrupt>
9d0066e4:	00000000 	nop

Disassembly of section .vector_40:

9d006700 <__vector_dispatch_40>:
9d006700:	0b402166 	j	9d008598 <_DefaultInterrupt>
9d006704:	00000000 	nop

Disassembly of section .vector_41:

9d006720 <__vector_dispatch_41>:
9d006720:	0b402166 	j	9d008598 <_DefaultInterrupt>
9d006724:	00000000 	nop

Disassembly of section .vector_42:

9d006740 <__vector_dispatch_42>:
9d006740:	0b402166 	j	9d008598 <_DefaultInterrupt>
9d006744:	00000000 	nop

Disassembly of section .vector_43:

9d006760 <__vector_dispatch_43>:
9d006760:	0b402166 	j	9d008598 <_DefaultInterrupt>
9d006764:	00000000 	nop

Disassembly of section .rodata:

9d007490 <.rodata>:
9d007490:	00000000 	nop
9d007494:	3fe80000 	0x3fe80000
9d007498:	00000000 	nop
9d00749c:	41f00000 	0x41f00000

Disassembly of section ._debug_exception:

bfc00480 <__DbgExecReturn>:
bfc00480:	409bf800 	mtc0	k1,c0_desave
bfc00484:	000000c0 	ehb
bfc00488:	3c1b9d01 	lui	k1,0x9d01
bfc0048c:	277b85e0 	addiu	k1,k1,-31264
bfc00490:	13600002 	beqz	k1,bfc0049c <__DbgExecReturn+0x1c>
bfc00494:	00000000 	nop
bfc00498:	409bc000 	mtc0	k1,c0_depc
bfc0049c:	401bf800 	mfc0	k1,c0_desave
bfc004a0:	000000c0 	ehb
bfc004a4:	4200001f 	deret
bfc004a8:	00000000 	nop

Disassembly of section .text.dp32subadd:

9d0074a0 <__subdf3>:
9d0074a0:	3c018000 00e13826                       ...<&8..

9d0074a8 <__adddf3>:
9d0074a8:	00055840 000b5d42 000552c0 00047d42     @X..B]...R..B}..
9d0074b8:	014f5025 00044ac0 3c088000 01485025     %PO..J.....<%PH.
9d0074c8:	00077040 000e7542 00076ac0 00067d42     @p..Bu...j..B}..
9d0074d8:	01af6825 000662c0 01a86825 256fffff     %h...b..%h....o%
9d0074e8:	2de107fe 1020008d 00000000              ...-.. .....

9d0074f4 <Blab1>:
9d0074f4:	25cfffff 	addiu	t7,t6,-1
9d0074f8:	2de107fe 	sltiu	at,t7,2046
9d0074fc:	102000bb 	beqz	at,9d0077ec <BspecB>
9d007500:	00000000 	nop

9d007504 <Blab2>:
9d007504:	3c018000 	lui	at,0x8000
9d007508:	00a12824 	and	a1,a1,at
9d00750c:	016e4023 	subu	t0,t3,t6
9d007510:	1100002c 	beqz	t0,9d0075c4 <Badd3>
9d007514:	00000000 	nop
9d007518:	19000015 	blez	t0,9d007570 <i1>
9d00751c:	00000000 	nop

9d007520 <L1>:
9d007520:	2d010020 	sltiu	at,t0,32
9d007524:	14200007 	bnez	at,9d007544 <L2>
9d007528:	00000000 	nop
9d00752c:	2108ffe0 	addi	t0,t0,-32
9d007530:	000c302b 	sltu	a2,zero,t4
9d007534:	100d0023 	beq	zero,t5,9d0075c4 <Badd3>
9d007538:	01a66025 	or	t4,t5,a2
9d00753c:	1000fff8 	b	9d007520 <L1>
9d007540:	340d0000 	li	t5,0x0

9d007544 <L2>:
9d007544:	1100001f 	beqz	t0,9d0075c4 <Badd3>
9d007548:	00000000 	nop
9d00754c:	00082022 	neg	a0,t0
9d007550:	008c3004 	sllv	a2,t4,a0
9d007554:	008d2004 	sllv	a0,t5,a0
9d007558:	010c6006 	srlv	t4,t4,t0
9d00755c:	010d6806 	srlv	t5,t5,t0
9d007560:	10c00018 	beqz	a2,9d0075c4 <Badd3>
9d007564:	008c6025 	or	t4,a0,t4
9d007568:	10000016 	b	9d0075c4 <Badd3>
9d00756c:	358c0002 	ori	t4,t4,0x2

9d007570 <i1>:
9d007570:	000e5825 	or	t3,zero,t6
9d007574:	00084023 	negu	t0,t0

9d007578 <L4>:
9d007578:	2d010020 	sltiu	at,t0,32
9d00757c:	14200007 	bnez	at,9d00759c <L5>
9d007580:	00000000 	nop
9d007584:	2108ffe0 	addi	t0,t0,-32
9d007588:	0009302b 	sltu	a2,zero,t1
9d00758c:	100a000d 	beq	zero,t2,9d0075c4 <Badd3>
9d007590:	01464825 	or	t1,t2,a2
9d007594:	1000fff8 	b	9d007578 <L4>
9d007598:	340a0000 	li	t2,0x0

9d00759c <L5>:
9d00759c:	11000009 	beqz	t0,9d0075c4 <Badd3>
9d0075a0:	00000000 	nop
9d0075a4:	00082022 	neg	a0,t0
9d0075a8:	00893004 	sllv	a2,t1,a0
9d0075ac:	008a2004 	sllv	a0,t2,a0
9d0075b0:	01094806 	srlv	t1,t1,t0
9d0075b4:	010a5006 	srlv	t2,t2,t0
9d0075b8:	10c00002 	beqz	a2,9d0075c4 <Badd3>
9d0075bc:	00894825 	or	t1,a0,t1
9d0075c0:	35290002 	ori	t1,t1,0x2

9d0075c4 <Badd3>:
9d0075c4:	00a77826 	xor	t7,a1,a3
9d0075c8:	05e0001c 	bltz	t7,9d00763c <Bsub1>
9d0075cc:	00000000 	nop
9d0075d0:	012c4821 	addu	t1,t1,t4
9d0075d4:	012c782b 	sltu	t7,t1,t4
9d0075d8:	014d5021 	addu	t2,t2,t5
9d0075dc:	014f5021 	addu	t2,t2,t7
9d0075e0:	114d0002 	beq	t2,t5,9d0075ec <L7>
9d0075e4:	00000000 	nop
9d0075e8:	014d782b 	sltu	t7,t2,t5

9d0075ec <L7>:
9d0075ec:	11e00037 	beqz	t7,9d0076cc <Bres>
9d0075f0:	00000000 	nop
9d0075f4:	312f0001 	andi	t7,t1,0x1
9d0075f8:	11e00002 	beqz	t7,9d007604 <i3>
9d0075fc:	00000000 	nop
9d007600:	35290002 	ori	t1,t1,0x2

9d007604 <i3>:
9d007604:	00094842 	srl	t1,t1,0x1
9d007608:	000a7fc0 	sll	t7,t2,0x1f
9d00760c:	012f4825 	or	t1,t1,t7
9d007610:	000a5042 	srl	t2,t2,0x1
9d007614:	3c018000 	lui	at,0x8000
9d007618:	01415025 	or	t2,t2,at
9d00761c:	256b0001 	addiu	t3,t3,1
9d007620:	240107ff 	li	at,2047
9d007624:	15610029 	bne	t3,at,9d0076cc <Bres>
9d007628:	00000000 	nop
9d00762c:	3c017ff0 	lui	at,0x7ff0
9d007630:	00a12825 	or	a1,a1,at
9d007634:	10000037 	b	9d007714 <BretA>
9d007638:	24040000 	li	a0,0

9d00763c <Bsub1>:
9d00763c:	012c782b 	sltu	t7,t1,t4
9d007640:	012c4823 	subu	t1,t1,t4
9d007644:	014f102b 	sltu	v0,t2,t7
9d007648:	014f5023 	subu	t2,t2,t7
9d00764c:	014d782b 	sltu	t7,t2,t5
9d007650:	01e27825 	or	t7,t7,v0
9d007654:	11e00007 	beqz	t7,9d007674 <i5>
9d007658:	014d5023 	subu	t2,t2,t5
9d00765c:	3c018000 	lui	at,0x8000
9d007660:	00a12826 	xor	a1,a1,at
9d007664:	0009782b 	sltu	t7,zero,t1
9d007668:	00094823 	negu	t1,t1
9d00766c:	000a5023 	negu	t2,t2
9d007670:	014f5023 	subu	t2,t2,t7

9d007674 <i5>:
9d007674:	15400008 	bnez	t2,9d007698 <L8>
9d007678:	00000000 	nop
9d00767c:	15200003 	bnez	t1,9d00768c <L9>
9d007680:	00000000 	nop
9d007684:	1000000d 	b	9d0076bc <L10>
9d007688:	240b0000 	li	t3,0

9d00768c <L9>:
9d00768c:	01205025 	move	t2,t1
9d007690:	24090000 	li	t1,0
9d007694:	256bffe0 	addiu	t3,t3,-32

9d007698 <L8>:
9d007698:	71484020 	clz	t0,t2
9d00769c:	11000007 	beqz	t0,9d0076bc <L10>
9d0076a0:	00000000 	nop
9d0076a4:	01685823 	subu	t3,t3,t0
9d0076a8:	00082022 	neg	a0,t0
9d0076ac:	00892006 	srlv	a0,t1,a0
9d0076b0:	01094804 	sllv	t1,t1,t0
9d0076b4:	010a5004 	sllv	t2,t2,t0
9d0076b8:	01445025 	or	t2,t2,a0

9d0076bc <L10>:
9d0076bc:	01497825 	or	t7,t2,t1
9d0076c0:	15e00002 	bnez	t7,9d0076cc <Bres>
9d0076c4:	00000000 	nop
9d0076c8:	24050000 	li	a1,0

9d0076cc <Bres>:
9d0076cc:	19600068 	blez	t3,9d007870 <Bund>
9d0076d0:	00000000 	nop

9d0076d4 <Blab8>:
9d0076d4:	25290400 	addiu	t1,t1,1024
9d0076d8:	2d2f0400 	sltiu	t7,t1,1024
9d0076dc:	014f5021 	addu	t2,t2,t7
9d0076e0:	014f782b 	sltu	t7,t2,t7
9d0076e4:	016f5821 	addu	t3,t3,t7
9d0076e8:	00097ac2 	srl	t7,t1,0xb
9d0076ec:	31ef0001 	andi	t7,t7,0x1
9d0076f0:	012f4823 	subu	t1,t1,t7
9d0076f4:	000922c2 	srl	a0,t1,0xb
9d0076f8:	000a7d40 	sll	t7,t2,0x15
9d0076fc:	008f2025 	or	a0,a0,t7
9d007700:	000a7840 	sll	t7,t2,0x1
9d007704:	000f7b02 	srl	t7,t7,0xc
9d007708:	00af2825 	or	a1,a1,t7
9d00770c:	000b7d00 	sll	t7,t3,0x14
9d007710:	00af2825 	or	a1,a1,t7

9d007714 <BretA>:
9d007714:	00041025 	or	v0,zero,a0
9d007718:	00051825 	or	v1,zero,a1

9d00771c <B999>:
9d00771c:	03e00008 	jr	ra
9d007720:	00000000 	nop

9d007724 <BspecA>:
9d007724:	0120782a 	slt	t7,t1,zero
9d007728:	01294821 	addu	t1,t1,t1
9d00772c:	014a5021 	addu	t2,t2,t2
9d007730:	15600023 	bnez	t3,9d0077c0 <i7>
9d007734:	014f5021 	addu	t2,t2,t7
9d007738:	01497825 	or	t7,t2,t1
9d00773c:	11e00014 	beqz	t7,9d007790 <i8>
9d007740:	00000000 	nop
9d007744:	15400008 	bnez	t2,9d007768 <L11>
9d007748:	00000000 	nop
9d00774c:	15200003 	bnez	t1,9d00775c <L12>
9d007750:	00000000 	nop
9d007754:	1000ff67 	b	9d0074f4 <Blab1>
9d007758:	240b0000 	li	t3,0

9d00775c <L12>:
9d00775c:	01205025 	move	t2,t1
9d007760:	24090000 	li	t1,0
9d007764:	256bffe0 	addiu	t3,t3,-32

9d007768 <L11>:
9d007768:	71484020 	clz	t0,t2
9d00776c:	1100ff61 	beqz	t0,9d0074f4 <Blab1>
9d007770:	00000000 	nop
9d007774:	01685823 	subu	t3,t3,t0
9d007778:	00082022 	neg	a0,t0
9d00777c:	00892006 	srlv	a0,t1,a0
9d007780:	01094804 	sllv	t1,t1,t0
9d007784:	010a5004 	sllv	t2,t2,t0
9d007788:	1000ff5a 	b	9d0074f4 <Blab1>
9d00778c:	01445025 	or	t2,t2,a0

9d007790 <i8>:
9d007790:	240107ff 	li	at,2047
9d007794:	11c10015 	beq	t6,at,9d0077ec <BspecB>
9d007798:	00000000 	nop
9d00779c:	00e74021 	addu	t0,a3,a3
9d0077a0:	01067825 	or	t7,t0,a2
9d0077a4:	15e00003 	bnez	t7,9d0077b4 <BretB>
9d0077a8:	00000000 	nop
9d0077ac:	04e0ffd9 	bltz	a3,9d007714 <BretA>
9d0077b0:	00000000 	nop

9d0077b4 <BretB>:
9d0077b4:	00061025 	or	v0,zero,a2
9d0077b8:	1000ffd8 	b	9d00771c <B999>
9d0077bc:	00071825 	or	v1,zero,a3

9d0077c0 <i7>:
9d0077c0:	01497825 	or	t7,t2,t1
9d0077c4:	15e00027 	bnez	t7,9d007864 <Bnan>
9d0077c8:	00000000 	nop
9d0077cc:	240107ff 	li	at,2047
9d0077d0:	15c1ffd0 	bne	t6,at,9d007714 <BretA>
9d0077d4:	00000000 	nop
9d0077d8:	00a77826 	xor	t7,a1,a3
9d0077dc:	05e00021 	bltz	t7,9d007864 <Bnan>
9d0077e0:	00000000 	nop
9d0077e4:	1000fff3 	b	9d0077b4 <BretB>
9d0077e8:	00000000 	nop

9d0077ec <BspecB>:
9d0077ec:	0180782a 	slt	t7,t4,zero
9d0077f0:	018c6021 	addu	t4,t4,t4
9d0077f4:	01ad6821 	addu	t5,t5,t5
9d0077f8:	15c00017 	bnez	t6,9d007858 <i11>
9d0077fc:	01af6821 	addu	t5,t5,t7
9d007800:	01ac7825 	or	t7,t5,t4
9d007804:	11e0ffc3 	beqz	t7,9d007714 <BretA>
9d007808:	00000000 	nop
9d00780c:	15a00008 	bnez	t5,9d007830 <L14>
9d007810:	00000000 	nop
9d007814:	15800003 	bnez	t4,9d007824 <L15>
9d007818:	00000000 	nop
9d00781c:	1000ff39 	b	9d007504 <Blab2>
9d007820:	240e0000 	li	t6,0

9d007824 <L15>:
9d007824:	01806825 	move	t5,t4
9d007828:	240c0000 	li	t4,0
9d00782c:	25ceffe0 	addiu	t6,t6,-32

9d007830 <L14>:
9d007830:	71a84020 	clz	t0,t5
9d007834:	1100ff33 	beqz	t0,9d007504 <Blab2>
9d007838:	00000000 	nop
9d00783c:	01c87023 	subu	t6,t6,t0
9d007840:	00082022 	neg	a0,t0
9d007844:	008c2006 	srlv	a0,t4,a0
9d007848:	010c6004 	sllv	t4,t4,t0
9d00784c:	010d6804 	sllv	t5,t5,t0
9d007850:	1000ff2c 	b	9d007504 <Blab2>
9d007854:	01a46825 	or	t5,t5,a0

9d007858 <i11>:
9d007858:	01ac7825 	or	t7,t5,t4
9d00785c:	11e0ffd5 	beqz	t7,9d0077b4 <BretB>
9d007860:	00000000 	nop

9d007864 <Bnan>:
9d007864:	3c05fff8 	lui	a1,0xfff8
9d007868:	1000ffaa 	b	9d007714 <BretA>
9d00786c:	24040000 	li	a0,0

9d007870 <Bund>:
9d007870:	24080001 	li	t0,1
9d007874:	010b4023 	subu	t0,t0,t3

9d007878 <L17>:
9d007878:	2d010020 	sltiu	at,t0,32
9d00787c:	14200007 	bnez	at,9d00789c <L18>
9d007880:	00000000 	nop
9d007884:	2108ffe0 	addi	t0,t0,-32
9d007888:	0009302b 	sltu	a2,zero,t1
9d00788c:	100a000d 	beq	zero,t2,9d0078c4 <L19>
9d007890:	01464825 	or	t1,t2,a2
9d007894:	1000fff8 	b	9d007878 <L17>
9d007898:	340a0000 	li	t2,0x0

9d00789c <L18>:
9d00789c:	11000009 	beqz	t0,9d0078c4 <L19>
9d0078a0:	00000000 	nop
9d0078a4:	00082022 	neg	a0,t0
9d0078a8:	00893004 	sllv	a2,t1,a0
9d0078ac:	008a2004 	sllv	a0,t2,a0
9d0078b0:	01094806 	srlv	t1,t1,t0
9d0078b4:	010a5006 	srlv	t2,t2,t0
9d0078b8:	10c00002 	beqz	a2,9d0078c4 <L19>
9d0078bc:	00894825 	or	t1,a0,t1
9d0078c0:	35290002 	ori	t1,t1,0x2

9d0078c4 <L19>:
9d0078c4:	1000ff83 	b	9d0076d4 <Blab8>
9d0078c8:	240b0000 	li	t3,0
9d0078cc:	00000000 	nop

Disassembly of section .text:

9d0078d0 <NU32DIP_Startup>:
#include "nu32dip.h"

void NU32DIP_Startup() {
9d0078d0:	27bdfff8 	addiu	sp,sp,-8
9d0078d4:	afbf0004 	sw	ra,4(sp)
9d0078d8:	afbe0000 	sw	s8,0(sp)
9d0078dc:	03a0f025 	move	s8,sp
    __builtin_disable_interrupts(); // disable interrupts while initializing things
9d0078e0:	41626000 	di	v0
9d0078e4:	000000c0 	ehb
9d0078e8:	00000000 	nop

    // set the CP0 CONFIG register to indicate that kseg0 is cacheable (0x3)
    __builtin_mtc0(_CP0_CONFIG, _CP0_CONFIG_SELECT, 0xa4210583);
9d0078ec:	3c02a421 	lui	v0,0xa421
9d0078f0:	34420583 	ori	v0,v0,0x583
9d0078f4:	40828000 	mtc0	v0,c0_config
9d0078f8:	000000c0 	ehb

    // 0 data RAM access wait states
    BMXCONbits.BMXWSDRM = 0x0;
9d0078fc:	3c03bf88 	lui	v1,0xbf88
9d007900:	8c622000 	lw	v0,8192(v1)
9d007904:	7c023184 	ins	v0,zero,0x6,0x1
9d007908:	ac622000 	sw	v0,8192(v1)

    // enable multi vector interrupts
    INTCONbits.MVEC = 0x1;
9d00790c:	3c03bf88 	lui	v1,0xbf88
9d007910:	8c621000 	lw	v0,4096(v1)
9d007914:	24040001 	li	a0,1
9d007918:	7c826304 	ins	v0,a0,0xc,0x1
9d00791c:	ac621000 	sw	v0,4096(v1)

    // disable JTAG to get pins back
    DDPCONbits.JTAGEN = 0;
9d007920:	3c03bf81 	lui	v1,0xbf81
9d007924:	9462f200 	lhu	v0,-3584(v1)
9d007928:	7c0218c4 	ins	v0,zero,0x3,0x1
9d00792c:	a462f200 	sh	v0,-3584(v1)

    // do your TRIS and LAT commands here
    TRISBCLR = 0b110000; // B4 and B5 LEDs
9d007930:	3c02bf88 	lui	v0,0xbf88
9d007934:	24030030 	li	v1,48
9d007938:	ac436114 	sw	v1,24852(v0)
    TRISASET = 0b010000; // A4 user button
9d00793c:	3c02bf88 	lui	v0,0xbf88
9d007940:	24030010 	li	v1,16
9d007944:	ac436018 	sw	v1,24600(v0)
    //NU32_LED1 = 1; // LED1 is off
    NU32DIP_YELLOW = 1;
9d007948:	3c03bf88 	lui	v1,0xbf88
9d00794c:	94626130 	lhu	v0,24880(v1)
9d007950:	24040001 	li	a0,1
9d007954:	7c822944 	ins	v0,a0,0x5,0x1
9d007958:	a4626130 	sh	v0,24880(v1)
    //NU32_LED2 = 0; // LED2 is on
    NU32DIP_GREEN = 0;
9d00795c:	3c03bf88 	lui	v1,0xbf88
9d007960:	94626130 	lhu	v0,24880(v1)
9d007964:	7c022104 	ins	v0,zero,0x4,0x1
9d007968:	a4626130 	sh	v0,24880(v1)

    //UART1 pins
    U1RXRbits.U1RXR = 0b0000; // Set A2 to U1RX
9d00796c:	3c03bf81 	lui	v1,0xbf81
9d007970:	9062fa50 	lbu	v0,-1456(v1)
9d007974:	7c021804 	ins	v0,zero,0x0,0x4
9d007978:	a062fa50 	sb	v0,-1456(v1)
    RPB3Rbits.RPB3R = 0b0001; // Set B3 to U1TX
9d00797c:	3c03bf81 	lui	v1,0xbf81
9d007980:	9062fb38 	lbu	v0,-1224(v1)
9d007984:	24040001 	li	a0,1
9d007988:	7c821804 	ins	v0,a0,0x0,0x4
9d00798c:	a062fb38 	sb	v0,-1224(v1)

    // turn on UART1 without an interrupt
    U1MODEbits.BRGH = 0; // set baud to NU32_DESIRED_BAUD
9d007990:	3c03bf80 	lui	v1,0xbf80
9d007994:	94626000 	lhu	v0,24576(v1)
9d007998:	7c0218c4 	ins	v0,zero,0x3,0x1
9d00799c:	a4626000 	sh	v0,24576(v1)
    U1BRG = ((NU32DIP_SYS_FREQ / NU32DIP_DESIRED_BAUD) / 16) - 1;
9d0079a0:	3c02bf80 	lui	v0,0xbf80
9d0079a4:	2403000c 	li	v1,12
9d0079a8:	ac436040 	sw	v1,24640(v0)

    // 8 bit, no parity bit, and 1 stop bit (8N1 setup)
    U1MODEbits.PDSEL = 0;
9d0079ac:	3c03bf80 	lui	v1,0xbf80
9d0079b0:	94626000 	lhu	v0,24576(v1)
9d0079b4:	7c021044 	ins	v0,zero,0x1,0x2
9d0079b8:	a4626000 	sh	v0,24576(v1)
    U1MODEbits.STSEL = 0;
9d0079bc:	3c03bf80 	lui	v1,0xbf80
9d0079c0:	94626000 	lhu	v0,24576(v1)
9d0079c4:	7c020004 	ins	v0,zero,0x0,0x1
9d0079c8:	a4626000 	sh	v0,24576(v1)

    // configure TX & RX pins as output & input pins
    U1STAbits.UTXEN = 1;
9d0079cc:	3c03bf80 	lui	v1,0xbf80
9d0079d0:	8c626010 	lw	v0,24592(v1)
9d0079d4:	24040001 	li	a0,1
9d0079d8:	7c825284 	ins	v0,a0,0xa,0x1
9d0079dc:	ac626010 	sw	v0,24592(v1)
    U1STAbits.URXEN = 1;
9d0079e0:	3c03bf80 	lui	v1,0xbf80
9d0079e4:	8c626010 	lw	v0,24592(v1)
9d0079e8:	24040001 	li	a0,1
9d0079ec:	7c826304 	ins	v0,a0,0xc,0x1
9d0079f0:	ac626010 	sw	v0,24592(v1)
    // configure without hardware flow control
    U1MODEbits.UEN = 0;
9d0079f4:	3c03bf80 	lui	v1,0xbf80
9d0079f8:	94626000 	lhu	v0,24576(v1)
9d0079fc:	7c024a04 	ins	v0,zero,0x8,0x2
9d007a00:	a4626000 	sh	v0,24576(v1)

    // enable the uart
    U1MODEbits.ON = 1;
9d007a04:	3c03bf80 	lui	v1,0xbf80
9d007a08:	94626000 	lhu	v0,24576(v1)
9d007a0c:	24040001 	li	a0,1
9d007a10:	7c827bc4 	ins	v0,a0,0xf,0x1
9d007a14:	a4626000 	sh	v0,24576(v1)

    __builtin_enable_interrupts();
9d007a18:	41626020 	ei	v0
}
9d007a1c:	00000000 	nop
9d007a20:	03c0e825 	move	sp,s8
9d007a24:	8fbf0004 	lw	ra,4(sp)
9d007a28:	8fbe0000 	lw	s8,0(sp)
9d007a2c:	27bd0008 	addiu	sp,sp,8
9d007a30:	03e00008 	jr	ra
9d007a34:	00000000 	nop

9d007a38 <NU32DIP_ReadUART1>:

// Read from UART1
// block other functions until you get a '\r' or '\n'
// send the pointer to your char array and the number of elements in the array

void NU32DIP_ReadUART1(char * message, int maxLength) {
9d007a38:	27bdffe8 	addiu	sp,sp,-24
9d007a3c:	afbe0014 	sw	s8,20(sp)
9d007a40:	03a0f025 	move	s8,sp
9d007a44:	afc40018 	sw	a0,24(s8)
9d007a48:	afc5001c 	sw	a1,28(s8)
    char data = 0;
9d007a4c:	a3c00008 	sb	zero,8(s8)
    int complete = 0, num_bytes = 0;
9d007a50:	afc00000 	sw	zero,0(s8)
9d007a54:	afc00004 	sw	zero,4(s8)
    // loop until you get a '\r' or '\n'
    while (!complete) {
9d007a58:	10000024 	b	9d007aec <NU32DIP_ReadUART1+0xb4>
9d007a5c:	00000000 	nop
        if (U1STAbits.URXDA) { // if data is available
9d007a60:	3c02bf80 	lui	v0,0xbf80
9d007a64:	8c426010 	lw	v0,24592(v0)
9d007a68:	7c420000 	ext	v0,v0,0x0,0x1
9d007a6c:	304200ff 	andi	v0,v0,0xff
9d007a70:	1040001e 	beqz	v0,9d007aec <NU32DIP_ReadUART1+0xb4>
9d007a74:	00000000 	nop
            data = U1RXREG; // read the data
9d007a78:	3c02bf80 	lui	v0,0xbf80
9d007a7c:	8c426030 	lw	v0,24624(v0)
9d007a80:	a3c20008 	sb	v0,8(s8)
            if ((data == '\n') || (data == '\r')) {
9d007a84:	83c30008 	lb	v1,8(s8)
9d007a88:	2402000a 	li	v0,10
9d007a8c:	10620005 	beq	v1,v0,9d007aa4 <NU32DIP_ReadUART1+0x6c>
9d007a90:	00000000 	nop
9d007a94:	83c30008 	lb	v1,8(s8)
9d007a98:	2402000d 	li	v0,13
9d007a9c:	14620005 	bne	v1,v0,9d007ab4 <NU32DIP_ReadUART1+0x7c>
9d007aa0:	00000000 	nop
                complete = 1;
9d007aa4:	24020001 	li	v0,1
9d007aa8:	afc20000 	sw	v0,0(s8)
9d007aac:	1000000f 	b	9d007aec <NU32DIP_ReadUART1+0xb4>
9d007ab0:	00000000 	nop
            } else {
                message[num_bytes] = data;
9d007ab4:	8fc20004 	lw	v0,4(s8)
9d007ab8:	8fc30018 	lw	v1,24(s8)
9d007abc:	00621021 	addu	v0,v1,v0
9d007ac0:	93c30008 	lbu	v1,8(s8)
9d007ac4:	a0430000 	sb	v1,0(v0)
                ++num_bytes;
9d007ac8:	8fc20004 	lw	v0,4(s8)
9d007acc:	24420001 	addiu	v0,v0,1
9d007ad0:	afc20004 	sw	v0,4(s8)
                // roll over if the array is too small
                if (num_bytes >= maxLength) {
9d007ad4:	8fc30004 	lw	v1,4(s8)
9d007ad8:	8fc2001c 	lw	v0,28(s8)
9d007adc:	0062102a 	slt	v0,v1,v0
9d007ae0:	14400002 	bnez	v0,9d007aec <NU32DIP_ReadUART1+0xb4>
9d007ae4:	00000000 	nop
                    num_bytes = 0;
9d007ae8:	afc00004 	sw	zero,4(s8)
    while (!complete) {
9d007aec:	8fc20000 	lw	v0,0(s8)
9d007af0:	1040ffdb 	beqz	v0,9d007a60 <NU32DIP_ReadUART1+0x28>
9d007af4:	00000000 	nop
                }
            }
        }
    }
    // end the string
    message[num_bytes] = '\0';
9d007af8:	8fc20004 	lw	v0,4(s8)
9d007afc:	8fc30018 	lw	v1,24(s8)
9d007b00:	00621021 	addu	v0,v1,v0
9d007b04:	a0400000 	sb	zero,0(v0)
}
9d007b08:	00000000 	nop
9d007b0c:	03c0e825 	move	sp,s8
9d007b10:	8fbe0014 	lw	s8,20(sp)
9d007b14:	27bd0018 	addiu	sp,sp,24
9d007b18:	03e00008 	jr	ra
9d007b1c:	00000000 	nop

9d007b20 <NU32DIP_WriteUART1>:

// Write a character array using UART1

void NU32DIP_WriteUART1(const char * string) {
9d007b20:	27bdfff8 	addiu	sp,sp,-8
9d007b24:	afbe0004 	sw	s8,4(sp)
9d007b28:	03a0f025 	move	s8,sp
9d007b2c:	afc40008 	sw	a0,8(s8)
    while (*string != '\0') {
9d007b30:	10000010 	b	9d007b74 <NU32DIP_WriteUART1+0x54>
9d007b34:	00000000 	nop
        while (U1STAbits.UTXBF) {
9d007b38:	00000000 	nop
9d007b3c:	3c02bf80 	lui	v0,0xbf80
9d007b40:	8c426010 	lw	v0,24592(v0)
9d007b44:	7c420240 	ext	v0,v0,0x9,0x1
9d007b48:	304200ff 	andi	v0,v0,0xff
9d007b4c:	1440fffb 	bnez	v0,9d007b3c <NU32DIP_WriteUART1+0x1c>
9d007b50:	00000000 	nop
            ; // wait until tx buffer isn't full
        }
        U1TXREG = *string;
9d007b54:	8fc20008 	lw	v0,8(s8)
9d007b58:	80420000 	lb	v0,0(v0)
9d007b5c:	00401825 	move	v1,v0
9d007b60:	3c02bf80 	lui	v0,0xbf80
9d007b64:	ac436020 	sw	v1,24608(v0)
        ++string;
9d007b68:	8fc20008 	lw	v0,8(s8)
9d007b6c:	24420001 	addiu	v0,v0,1
9d007b70:	afc20008 	sw	v0,8(s8)
    while (*string != '\0') {
9d007b74:	8fc20008 	lw	v0,8(s8)
9d007b78:	80420000 	lb	v0,0(v0)
9d007b7c:	1440ffee 	bnez	v0,9d007b38 <NU32DIP_WriteUART1+0x18>
9d007b80:	00000000 	nop
    }
}
9d007b84:	00000000 	nop
9d007b88:	03c0e825 	move	sp,s8
9d007b8c:	8fbe0004 	lw	s8,4(sp)
9d007b90:	27bd0008 	addiu	sp,sp,8
9d007b94:	03e00008 	jr	ra
9d007b98:	00000000 	nop

9d007b9c <NU32DIP_Delay>:

void NU32DIP_Delay(int ms){
9d007b9c:	27bdffe8 	addiu	sp,sp,-24
9d007ba0:	afbf0014 	sw	ra,20(sp)
9d007ba4:	afbe0010 	sw	s8,16(sp)
9d007ba8:	03a0f025 	move	s8,sp
9d007bac:	afc40018 	sw	a0,24(s8)
    NU32DIP_DelayMicroseconds(ms*1000);
9d007bb0:	8fc30018 	lw	v1,24(s8)
9d007bb4:	00601025 	move	v0,v1
9d007bb8:	00021140 	sll	v0,v0,0x5
9d007bbc:	00431023 	subu	v0,v0,v1
9d007bc0:	00021080 	sll	v0,v0,0x2
9d007bc4:	00431021 	addu	v0,v0,v1
9d007bc8:	000210c0 	sll	v0,v0,0x3
9d007bcc:	00402025 	move	a0,v0
9d007bd0:	0f401efd 	jal	9d007bf4 <NU32DIP_DelayMicroseconds>
9d007bd4:	00000000 	nop
}
9d007bd8:	00000000 	nop
9d007bdc:	03c0e825 	move	sp,s8
9d007be0:	8fbf0014 	lw	ra,20(sp)
9d007be4:	8fbe0010 	lw	s8,16(sp)
9d007be8:	27bd0018 	addiu	sp,sp,24
9d007bec:	03e00008 	jr	ra
9d007bf0:	00000000 	nop

9d007bf4 <NU32DIP_DelayMicroseconds>:
void NU32DIP_DelayMicroseconds(int us){
9d007bf4:	27bdfff0 	addiu	sp,sp,-16
9d007bf8:	afbf000c 	sw	ra,12(sp)
9d007bfc:	afbe0008 	sw	s8,8(sp)
9d007c00:	03a0f025 	move	s8,sp
9d007c04:	afc40010 	sw	a0,16(s8)
    long endCycles = (NU32DIP_SYS_FREQ/(2000000))*us + _CP0_GET_COUNT(); // divide by 2 for every other clock cycle, divide by 1000000 for 1 us
9d007c08:	8fc30010 	lw	v1,16(s8)
9d007c0c:	00601025 	move	v0,v1
9d007c10:	00021040 	sll	v0,v0,0x1
9d007c14:	00431021 	addu	v0,v0,v1
9d007c18:	000210c0 	sll	v0,v0,0x3
9d007c1c:	00401825 	move	v1,v0
9d007c20:	40024800 	mfc0	v0,c0_count
9d007c24:	00621021 	addu	v0,v1,v0
9d007c28:	afc20000 	sw	v0,0(s8)
    while(_CP0_GET_COUNT() < endCycles){};
9d007c2c:	00000000 	nop
9d007c30:	40034800 	mfc0	v1,c0_count
9d007c34:	8fc20000 	lw	v0,0(s8)
9d007c38:	0062102b 	sltu	v0,v1,v0
9d007c3c:	1440fffc 	bnez	v0,9d007c30 <NU32DIP_DelayMicroseconds+0x3c>
9d007c40:	00000000 	nop
9d007c44:	00000000 	nop
9d007c48:	03c0e825 	move	sp,s8
9d007c4c:	8fbf000c 	lw	ra,12(sp)
9d007c50:	8fbe0008 	lw	s8,8(sp)
9d007c54:	27bd0010 	addiu	sp,sp,16
9d007c58:	03e00008 	jr	ra
9d007c5c:	00000000 	nop

Disassembly of section .text.dp32mul:

9d007c60 <__muldf3>:
9d007c60:	00055040 000a5542 00054ac0 00047d42     @P..BU...J..B}..
9d007c70:	012f4825 000442c0 3c0e8000 012e4825     %H/..B.....<%H..
9d007c80:	00076840 000d6d42 000762c0 00067d42     @h..Bm...b..B}..
9d007c90:	018f6025 00065ac0 018e6025 00a72826     %`...Z..%`..&(..
9d007ca0:	00ae2824 254fffff 2de107fe 10200047     $(....O%...-G. .
9d007cb0:	00000000                                ....

9d007cb4 <Clab1>:
9d007cb4:	25afffff 	addiu	t7,t5,-1
9d007cb8:	2de107fe 	sltiu	at,t7,2046
9d007cbc:	1020006f 	beqz	at,9d007e7c <CspecB>
9d007cc0:	00000000 	nop

9d007cc4 <Clab2>:
9d007cc4:	25affc02 	addiu	t7,t5,-1022
9d007cc8:	014f5021 	addu	t2,t2,t7
9d007ccc:	012c0019 	multu	t1,t4
9d007cd0:	00003812 	mflo	a3
9d007cd4:	00007010 	mfhi	t6
9d007cd8:	010b0019 	multu	t0,t3
9d007cdc:	00002012 	mflo	a0
9d007ce0:	00003010 	mfhi	a2
9d007ce4:	012b0019 	multu	t1,t3
9d007ce8:	00005812 	mflo	t3
9d007cec:	00006810 	mfhi	t5
9d007cf0:	00cb3021 	addu	a2,a2,t3
9d007cf4:	00cb782b 	sltu	t7,a2,t3
9d007cf8:	00ed3821 	addu	a3,a3,t5
9d007cfc:	00ef3821 	addu	a3,a3,t7
9d007d00:	10ed0002 	beq	a3,t5,9d007d0c <L20>
9d007d04:	00000000 	nop
9d007d08:	00ed782b 	sltu	t7,a3,t5

9d007d0c <L20>:
9d007d0c:	01cf7021 	addu	t6,t6,t7
9d007d10:	010c0019 	multu	t0,t4
9d007d14:	00004012 	mflo	t0
9d007d18:	00004810 	mfhi	t1
9d007d1c:	00c83021 	addu	a2,a2,t0
9d007d20:	00c8782b 	sltu	t7,a2,t0
9d007d24:	00e93821 	addu	a3,a3,t1
9d007d28:	00ef3821 	addu	a3,a3,t7
9d007d2c:	10e90002 	beq	a3,t1,9d007d38 <L21>
9d007d30:	00000000 	nop
9d007d34:	00e9782b 	sltu	t7,a3,t1

9d007d38 <L21>:
9d007d38:	01cf7021 	addu	t6,t6,t7
9d007d3c:	00867825 	or	t7,a0,a2
9d007d40:	11e00002 	beqz	t7,9d007d4c <i13>
9d007d44:	00000000 	nop
9d007d48:	34e70001 	ori	a3,a3,0x1

9d007d4c <i13>:
9d007d4c:	000e4825 	or	t1,zero,t6
9d007d50:	05200006 	bltz	t1,9d007d6c <i14>
9d007d54:	00074025 	or	t0,zero,a3
9d007d58:	0100782a 	slt	t7,t0,zero
9d007d5c:	01084021 	addu	t0,t0,t0
9d007d60:	01294821 	addu	t1,t1,t1
9d007d64:	012f4821 	addu	t1,t1,t7
9d007d68:	254affff 	addiu	t2,t2,-1

9d007d6c <i14>:
9d007d6c:	254fffff 	addiu	t7,t2,-1
9d007d70:	2de107fe 	sltiu	at,t7,2046
9d007d74:	10200068 	beqz	at,9d007f18 <Coveund>
9d007d78:	00000000 	nop
9d007d7c:	25080400 	addiu	t0,t0,1024
9d007d80:	2d0f0400 	sltiu	t7,t0,1024
9d007d84:	012f4821 	addu	t1,t1,t7
9d007d88:	012f782b 	sltu	t7,t1,t7
9d007d8c:	014f5021 	addu	t2,t2,t7

9d007d90 <Clab8>:
9d007d90:	00087ac2 	srl	t7,t0,0xb
9d007d94:	31ef0001 	andi	t7,t7,0x1
9d007d98:	010f4023 	subu	t0,t0,t7
9d007d9c:	000822c2 	srl	a0,t0,0xb
9d007da0:	00097d40 	sll	t7,t1,0x15
9d007da4:	008f2025 	or	a0,a0,t7
9d007da8:	00097840 	sll	t7,t1,0x1
9d007dac:	000f7b02 	srl	t7,t7,0xc
9d007db0:	00af2825 	or	a1,a1,t7
9d007db4:	000a7d00 	sll	t7,t2,0x14
9d007db8:	00af2825 	or	a1,a1,t7

9d007dbc <Cret>:
9d007dbc:	00041025 	or	v0,zero,a0
9d007dc0:	00051825 	or	v1,zero,a1

9d007dc4 <C999>:
9d007dc4:	03e00008 	jr	ra
9d007dc8:	00000000 	nop

9d007dcc <CspecA>:
9d007dcc:	0100782a 	slt	t7,t0,zero
9d007dd0:	01084021 	addu	t0,t0,t0
9d007dd4:	01294821 	addu	t1,t1,t1
9d007dd8:	1540001c 	bnez	t2,9d007e4c <i15>
9d007ddc:	012f4821 	addu	t1,t1,t7
9d007de0:	01287825 	or	t7,t1,t0
9d007de4:	11e00014 	beqz	t7,9d007e38 <i16>
9d007de8:	00000000 	nop
9d007dec:	15200008 	bnez	t1,9d007e10 <L22>
9d007df0:	00000000 	nop
9d007df4:	15000003 	bnez	t0,9d007e04 <L23>
9d007df8:	00000000 	nop
9d007dfc:	1000ffad 	b	9d007cb4 <Clab1>
9d007e00:	240a0000 	li	t2,0

9d007e04 <L23>:
9d007e04:	01004825 	move	t1,t0
9d007e08:	24080000 	li	t0,0
9d007e0c:	254affe0 	addiu	t2,t2,-32

9d007e10 <L22>:
9d007e10:	712e7020 	clz	t6,t1
9d007e14:	11c0ffa7 	beqz	t6,9d007cb4 <Clab1>
9d007e18:	00000000 	nop
9d007e1c:	014e5023 	subu	t2,t2,t6
9d007e20:	000e3822 	neg	a3,t6
9d007e24:	00e83806 	srlv	a3,t0,a3
9d007e28:	01c84004 	sllv	t0,t0,t6
9d007e2c:	01c94804 	sllv	t1,t1,t6
9d007e30:	1000ffa0 	b	9d007cb4 <Clab1>
9d007e34:	01274825 	or	t1,t1,a3

9d007e38 <i16>:
9d007e38:	240107ff 	li	at,2047
9d007e3c:	11a10033 	beq	t5,at,9d007f0c <Cnan>
9d007e40:	00000000 	nop
9d007e44:	1000ffdd 	b	9d007dbc <Cret>
9d007e48:	00000000 	nop

9d007e4c <i15>:
9d007e4c:	01287825 	or	t7,t1,t0
9d007e50:	15e0002e 	bnez	t7,9d007f0c <Cnan>
9d007e54:	00000000 	nop
9d007e58:	15a00005 	bnez	t5,9d007e70 <i17>
9d007e5c:	00000000 	nop
9d007e60:	000c7840 	sll	t7,t4,0x1
9d007e64:	01eb7825 	or	t7,t7,t3
9d007e68:	11e00028 	beqz	t7,9d007f0c <Cnan>
9d007e6c:	00000000 	nop

9d007e70 <i17>:
9d007e70:	240107ff 	li	at,2047
9d007e74:	15a10021 	bne	t5,at,9d007efc <Cinf>
9d007e78:	00000000 	nop

9d007e7c <CspecB>:
9d007e7c:	0160782a 	slt	t7,t3,zero
9d007e80:	016b5821 	addu	t3,t3,t3
9d007e84:	018c6021 	addu	t4,t4,t4
9d007e88:	15a00019 	bnez	t5,9d007ef0 <i18>
9d007e8c:	018f6021 	addu	t4,t4,t7
9d007e90:	018b7825 	or	t7,t4,t3
9d007e94:	11e00014 	beqz	t7,9d007ee8 <i19>
9d007e98:	00000000 	nop
9d007e9c:	15800008 	bnez	t4,9d007ec0 <L25>
9d007ea0:	00000000 	nop
9d007ea4:	15600003 	bnez	t3,9d007eb4 <L26>
9d007ea8:	00000000 	nop
9d007eac:	1000ff85 	b	9d007cc4 <Clab2>
9d007eb0:	240d0000 	li	t5,0

9d007eb4 <L26>:
9d007eb4:	01606025 	move	t4,t3
9d007eb8:	240b0000 	li	t3,0
9d007ebc:	25adffe0 	addiu	t5,t5,-32

9d007ec0 <L25>:
9d007ec0:	71863020 	clz	a2,t4
9d007ec4:	10c0ff7f 	beqz	a2,9d007cc4 <Clab2>
9d007ec8:	00000000 	nop
9d007ecc:	01a66823 	subu	t5,t5,a2
9d007ed0:	00067022 	neg	t6,a2
9d007ed4:	01cb7006 	srlv	t6,t3,t6
9d007ed8:	00cb5804 	sllv	t3,t3,a2
9d007edc:	00cc6004 	sllv	t4,t4,a2
9d007ee0:	1000ff78 	b	9d007cc4 <Clab2>
9d007ee4:	018e6025 	or	t4,t4,t6

9d007ee8 <i19>:
9d007ee8:	1000ffb4 	b	9d007dbc <Cret>
9d007eec:	24040000 	li	a0,0

9d007ef0 <i18>:
9d007ef0:	018b7825 	or	t7,t4,t3
9d007ef4:	15e00005 	bnez	t7,9d007f0c <Cnan>
9d007ef8:	00000000 	nop

9d007efc <Cinf>:
9d007efc:	3c017ff0 	lui	at,0x7ff0
9d007f00:	00a12825 	or	a1,a1,at
9d007f04:	1000ffad 	b	9d007dbc <Cret>
9d007f08:	24040000 	li	a0,0

9d007f0c <Cnan>:
9d007f0c:	3c05fff8 	lui	a1,0xfff8
9d007f10:	1000ffaa 	b	9d007dbc <Cret>
9d007f14:	24040000 	li	a0,0

9d007f18 <Coveund>:
9d007f18:	1d40fff8 	bgtz	t2,9d007efc <Cinf>
9d007f1c:	00000000 	nop
9d007f20:	240e0001 	li	t6,1
9d007f24:	01ca7023 	subu	t6,t6,t2

9d007f28 <L28>:
9d007f28:	2dc10020 	sltiu	at,t6,32
9d007f2c:	14200007 	bnez	at,9d007f4c <L29>
9d007f30:	00000000 	nop
9d007f34:	21ceffe0 	addi	t6,t6,-32
9d007f38:	0008302b 	sltu	a2,zero,t0
9d007f3c:	1009000d 	beq	zero,t1,9d007f74 <L30>
9d007f40:	01264025 	or	t0,t1,a2
9d007f44:	1000fff8 	b	9d007f28 <L28>
9d007f48:	34090000 	li	t1,0x0

9d007f4c <L29>:
9d007f4c:	11c00009 	beqz	t6,9d007f74 <L30>
9d007f50:	00000000 	nop
9d007f54:	000e3822 	neg	a3,t6
9d007f58:	00e83004 	sllv	a2,t0,a3
9d007f5c:	00e93804 	sllv	a3,t1,a3
9d007f60:	01c84006 	srlv	t0,t0,t6
9d007f64:	01c94806 	srlv	t1,t1,t6
9d007f68:	10c00002 	beqz	a2,9d007f74 <L30>
9d007f6c:	00e84025 	or	t0,a3,t0
9d007f70:	35080002 	ori	t0,t0,0x2

9d007f74 <L30>:
9d007f74:	25080400 	addiu	t0,t0,1024
9d007f78:	2d0f0400 	sltiu	t7,t0,1024
9d007f7c:	012f4821 	addu	t1,t1,t7
9d007f80:	1000ff83 	b	9d007d90 <Clab8>
9d007f84:	000957c2 	srl	t2,t1,0x1f
9d007f88:	00000000 	nop

Disassembly of section .text:

9d007f8c <makeWaveform>:
#define NUMSAMPS 1000 // number of points in waveform
#define DUTY_CYCLE 0.75

static volatile int Waveform[NUMSAMPS]; // waveform

void makeWaveform() {
9d007f8c:	24040001 	li	a0,1
9d007f90:	00001025 	move	v0,zero
  for (i = 0; i < NUMSAMPS; ++i) {
    if ( i < (int)(NUMSAMPS/2)) {
      Waveform[i] = center + A;
    }
    else {
      Waveform[i] = center - A;
9d007f94:	3c03a000 	lui	v1,0xa000
9d007f98:	24630004 	addiu	v1,v1,4
      Waveform[i] = center + A;
9d007f9c:	24060960 	li	a2,2400
    if ( i < (int)(NUMSAMPS/2)) {
9d007fa0:	284501f4 	slti	a1,v0,500
9d007fa4:	10a00006 	beqz	a1,9d007fc0 <makeWaveform+0x34>
9d007fa8:	00022880 	sll	a1,v0,0x2
      Waveform[i] = center + A;
9d007fac:	00a32821 	addu	a1,a1,v1
9d007fb0:	aca60000 	sw	a2,0(a1)
9d007fb4:	24420001 	addiu	v0,v0,1
9d007fb8:	1000fff9 	b	9d007fa0 <makeWaveform+0x14>
9d007fbc:	24840001 	addiu	a0,a0,1
      Waveform[i] = center - A;
9d007fc0:	00a32821 	addu	a1,a1,v1
9d007fc4:	aca00000 	sw	zero,0(a1)
  for (i = 0; i < NUMSAMPS; ++i) {
9d007fc8:	288503e8 	slti	a1,a0,1000
9d007fcc:	14a0fffa 	bnez	a1,9d007fb8 <makeWaveform+0x2c>
9d007fd0:	24420001 	addiu	v0,v0,1
    }
  }
}
9d007fd4:	03e00008 	jr	ra
9d007fd8:	00000000 	nop

9d007fdc <Controller>:

void __ISR(_TIMER_2_VECTOR, IPL5SOFT) Controller(void) { // _TIMER_2_VECTOR = 8
9d007fdc:	415de800 	rdpgpr	sp,sp
9d007fe0:	401a7000 	mfc0	k0,c0_epc
9d007fe4:	401b6000 	mfc0	k1,c0_status
9d007fe8:	27bdffd8 	addiu	sp,sp,-40
9d007fec:	afba0024 	sw	k0,36(sp)
9d007ff0:	401a6002 	mfc0	k0,c0_srsctl
9d007ff4:	afbb0020 	sw	k1,32(sp)
9d007ff8:	afba001c 	sw	k0,28(sp)
9d007ffc:	7c1b7844 	ins	k1,zero,0x1,0xf
9d008000:	377b1400 	ori	k1,k1,0x1400
9d008004:	409b6000 	mtc0	k1,c0_status
9d008008:	afbe0014 	sw	s8,20(sp)
9d00800c:	afb20010 	sw	s2,16(sp)
9d008010:	afb1000c 	sw	s1,12(sp)
9d008014:	afb00008 	sw	s0,8(sp)
9d008018:	afa30004 	sw	v1,4(sp)
9d00801c:	03a0f025 	move	s8,sp
  static int counter = 0; // initialize counter once
  OC1RS = Waveform[counter];
9d008020:	8f908010 	lw	s0,-32752(gp)
9d008024:	00108880 	sll	s1,s0,0x2
9d008028:	3c12a000 	lui	s2,0xa000
9d00802c:	26520004 	addiu	s2,s2,4
9d008030:	02328821 	addu	s1,s1,s2
9d008034:	8e320000 	lw	s2,0(s1)
9d008038:	3c11bf80 	lui	s1,0xbf80
9d00803c:	ae323020 	sw	s2,12320(s1)
  counter++; // add one to counter every time ISR is entered
9d008040:	26100001 	addiu	s0,s0,1
9d008044:	3a1103e8 	xori	s1,s0,0x3e8
9d008048:	0011800a 	movz	s0,zero,s1
9d00804c:	af908010 	sw	s0,-32752(gp)
  if (counter == NUMSAMPS) {
  counter = 0; // roll the counter over when needed
  }
  IFS0bits.T2IF = 0;  
9d008050:	3c10bf88 	lui	s0,0xbf88
9d008054:	8e111030 	lw	s1,4144(s0)
9d008058:	7c114a44 	ins	s1,zero,0x9,0x1
9d00805c:	ae111030 	sw	s1,4144(s0)
}
9d008060:	03c0e825 	move	sp,s8
9d008064:	8fbe0014 	lw	s8,20(sp)
9d008068:	8fb20010 	lw	s2,16(sp)
9d00806c:	8fb1000c 	lw	s1,12(sp)
9d008070:	8fb00008 	lw	s0,8(sp)
9d008074:	8fa30004 	lw	v1,4(sp)
9d008078:	41606000 	di
9d00807c:	000000c0 	ehb
9d008080:	8fba0024 	lw	k0,36(sp)
9d008084:	8fbb0020 	lw	k1,32(sp)
9d008088:	409a7000 	mtc0	k0,c0_epc
9d00808c:	8fba001c 	lw	k0,28(sp)
9d008090:	27bd0028 	addiu	sp,sp,40
9d008094:	409a6002 	mtc0	k0,c0_srsctl
9d008098:	41dde800 	wrpgpr	sp,sp
9d00809c:	409b6000 	mtc0	k1,c0_status
9d0080a0:	42000018 	eret

9d0080a4 <OC1_Setup>:

void OC1_Setup(){
9d0080a4:	27bdffe0 	addiu	sp,sp,-32
9d0080a8:	afbf001c 	sw	ra,28(sp)
9d0080ac:	afb10018 	sw	s1,24(sp)
9d0080b0:	afb00014 	sw	s0,20(sp)
  __builtin_disable_interrupts();
9d0080b4:	41626000 	di	v0
9d0080b8:	000000c0 	ehb
  T3CONbits.TCKPS = 0;     // Timer3 prescaler N=4 (1:4)
9d0080bc:	3c11bf80 	lui	s1,0xbf80
9d0080c0:	96220a00 	lhu	v0,2560(s1)
9d0080c4:	7c023104 	ins	v0,zero,0x4,0x3
9d0080c8:	a6220a00 	sh	v0,2560(s1)
  TMR3 = 0;                // initial TMR3 count is 0
9d0080cc:	3c02bf80 	lui	v0,0xbf80
9d0080d0:	ac400a10 	sw	zero,2576(v0)
  
  RPB7Rbits.RPB7R = 0b0101;          // map OC1 to RB7
9d0080d4:	3c02bf81 	lui	v0,0xbf81
9d0080d8:	9043fb48 	lbu	v1,-1208(v0)
9d0080dc:	24040005 	li	a0,5
9d0080e0:	7c831804 	ins	v1,a0,0x0,0x4
9d0080e4:	a043fb48 	sb	v1,-1208(v0)
  PR3 = 2399;              // period = (PR2+1) * N
9d0080e8:	3c02bf80 	lui	v0,0xbf80
9d0080ec:	2403095f 	li	v1,2399
9d0080f0:	ac430a20 	sw	v1,2592(v0)
  OC1CONbits.OCM = 0b110;  // PWM mode without fault pin; other OC1CON bits are defaults
9d0080f4:	3c10bf80 	lui	s0,0xbf80
9d0080f8:	96033000 	lhu	v1,12288(s0)
9d0080fc:	24040006 	li	a0,6
9d008100:	7c831004 	ins	v1,a0,0x0,0x3
9d008104:	a6033000 	sh	v1,12288(s0)
  OC1RS = (int)(DUTY_CYCLE*(PR3+1));             // duty cycle = OC1RS/(PR2+1) = 25%
9d008108:	8c440a20 	lw	a0,2592(v0)
9d00810c:	0f402189 	jal	9d008624 <__floatunsidf>
9d008110:	24840001 	addiu	a0,a0,1
9d008114:	3c049d00 	lui	a0,0x9d00
9d008118:	8c867490 	lw	a2,29840(a0)
9d00811c:	8c877494 	lw	a3,29844(a0)
9d008120:	00402025 	move	a0,v0
9d008124:	0f401f18 	jal	9d007c60 <__muldf3>
9d008128:	00602825 	move	a1,v1
9d00812c:	00402025 	move	a0,v0
9d008130:	0f4020cc 	jal	9d008330 <__fixdfsi>
9d008134:	00602825 	move	a1,v1
9d008138:	3c03bf80 	lui	v1,0xbf80
9d00813c:	ac623020 	sw	v0,12320(v1)
  OC1R = 500;              // initialize before turning OC1 on; afterward it is read-only
9d008140:	3c02bf80 	lui	v0,0xbf80
9d008144:	240301f4 	li	v1,500
9d008148:	ac433010 	sw	v1,12304(v0)
  OC1CONbits.OCTSEL = 1;    // use Timer3
9d00814c:	96033000 	lhu	v1,12288(s0)
9d008150:	24020001 	li	v0,1
9d008154:	7c4318c4 	ins	v1,v0,0x3,0x1
9d008158:	a6033000 	sh	v1,12288(s0)

  T3CONbits.ON = 1;        // turn on Timer3
9d00815c:	96230a00 	lhu	v1,2560(s1)
9d008160:	7c437bc4 	ins	v1,v0,0xf,0x1
9d008164:	a6230a00 	sh	v1,2560(s1)
  OC1CONbits.ON = 1;       // turn on OC1
9d008168:	96033000 	lhu	v1,12288(s0)
9d00816c:	7c437bc4 	ins	v1,v0,0xf,0x1
9d008170:	a6033000 	sh	v1,12288(s0)
  __builtin_enable_interrupts();
9d008174:	41626020 	ei	v0
}
9d008178:	8fbf001c 	lw	ra,28(sp)
9d00817c:	8fb10018 	lw	s1,24(sp)
9d008180:	8fb00014 	lw	s0,20(sp)
9d008184:	03e00008 	jr	ra
9d008188:	27bd0020 	addiu	sp,sp,32

9d00818c <Control_Timer_Setup>:

void Control_Timer_Setup(){
9d00818c:	27bdfff8 	addiu	sp,sp,-8
9d008190:	afbf0004 	sw	ra,4(sp)
  __builtin_disable_interrupts();
9d008194:	41626000 	di	v0
9d008198:	000000c0 	ehb

  TMR2 = 0; // initial count is 0
9d00819c:	3c02bf80 	lui	v0,0xbf80
9d0081a0:	ac400810 	sw	zero,2064(v0)
  PR2 = 5999; // reset count        
9d0081a4:	3c02bf80 	lui	v0,0xbf80
9d0081a8:	2403176f 	li	v1,5999
9d0081ac:	ac430820 	sw	v1,2080(v0)
  T2CONbits.TCKPS = 3; // prescale          
9d0081b0:	3c02bf80 	lui	v0,0xbf80
9d0081b4:	94430800 	lhu	v1,2048(v0)
9d0081b8:	24040003 	li	a0,3
9d0081bc:	7c833104 	ins	v1,a0,0x4,0x3
9d0081c0:	a4430800 	sh	v1,2048(v0)

  IPC2bits.T2IP = 5; // priority
9d0081c4:	3c03bf88 	lui	v1,0xbf88
9d0081c8:	8c6410b0 	lw	a0,4272(v1)
9d0081cc:	24050005 	li	a1,5
9d0081d0:	7ca42084 	ins	a0,a1,0x2,0x3
9d0081d4:	ac6410b0 	sw	a0,4272(v1)
  IPC2bits.T2IS = 0; // subpriority
9d0081d8:	8c6410b0 	lw	a0,4272(v1)
9d0081dc:	7c040804 	ins	a0,zero,0x0,0x2
9d0081e0:	ac6410b0 	sw	a0,4272(v1)
  IFS0bits.T2IF = 0; // clear interrupt flag
9d0081e4:	3c03bf88 	lui	v1,0xbf88
9d0081e8:	8c641030 	lw	a0,4144(v1)
9d0081ec:	7c044a44 	ins	a0,zero,0x9,0x1
9d0081f0:	ac641030 	sw	a0,4144(v1)
  IEC0bits.T2IE = 1; // enable interrupt
9d0081f4:	3c03bf88 	lui	v1,0xbf88
9d0081f8:	8c651060 	lw	a1,4192(v1)
9d0081fc:	24040001 	li	a0,1
9d008200:	7c854a44 	ins	a1,a0,0x9,0x1
9d008204:	ac651060 	sw	a1,4192(v1)

  T2CONbits.ON = 1;        // turn on Timer3
9d008208:	94430800 	lhu	v1,2048(v0)
9d00820c:	7c837bc4 	ins	v1,a0,0xf,0x1
9d008210:	a4430800 	sh	v1,2048(v0)
  __builtin_enable_interrupts();
9d008214:	41626020 	ei	v0
}
9d008218:	8fbf0004 	lw	ra,4(sp)
9d00821c:	03e00008 	jr	ra
9d008220:	27bd0008 	addiu	sp,sp,8

9d008224 <main>:

int main(void) {
9d008224:	27bdffe8 	addiu	sp,sp,-24
9d008228:	afbf0014 	sw	ra,20(sp)
  NU32DIP_Startup();          // cache on, interrupts on, LED/button init, UART init
9d00822c:	0f401e34 	jal	9d0078d0 <NU32DIP_Startup>
9d008230:	00000000 	nop
  makeWaveform();
9d008234:	0f401fe3 	jal	9d007f8c <makeWaveform>
9d008238:	00000000 	nop
  OC1_Setup();
9d00823c:	0f402029 	jal	9d0080a4 <OC1_Setup>
9d008240:	00000000 	nop
  Control_Timer_Setup();
9d008244:	0f402063 	jal	9d00818c <Control_Timer_Setup>
9d008248:	00000000 	nop
  while(1) {
    ;                      // infinite loop
9d00824c:	1000ffff 	b	9d00824c <main+0x28>
9d008250:	00000000 	nop

Disassembly of section .text.general_exception:

9d008254 <_general_exception_context>:
9d008254:	27bdffa8 	addiu	sp,sp,-88
9d008258:	afa10004 	sw	at,4(sp)
9d00825c:	afa20008 	sw	v0,8(sp)
9d008260:	afa3000c 	sw	v1,12(sp)
9d008264:	afa40010 	sw	a0,16(sp)
9d008268:	afa50014 	sw	a1,20(sp)
9d00826c:	afa60018 	sw	a2,24(sp)
9d008270:	afa7001c 	sw	a3,28(sp)
9d008274:	afa80020 	sw	t0,32(sp)
9d008278:	afa90024 	sw	t1,36(sp)
9d00827c:	afaa0028 	sw	t2,40(sp)
9d008280:	afab002c 	sw	t3,44(sp)
9d008284:	afac0030 	sw	t4,48(sp)
9d008288:	afad0034 	sw	t5,52(sp)
9d00828c:	afae0038 	sw	t6,56(sp)
9d008290:	afaf003c 	sw	t7,60(sp)
9d008294:	afb80040 	sw	t8,64(sp)
9d008298:	afb90044 	sw	t9,68(sp)
9d00829c:	afbf0048 	sw	ra,72(sp)
9d0082a0:	00004012 	mflo	t0
9d0082a4:	afa8004c 	sw	t0,76(sp)
9d0082a8:	00004010 	mfhi	t0
9d0082ac:	afa80050 	sw	t0,80(sp)
9d0082b0:	3c1a9d01 	lui	k0,0x9d01
9d0082b4:	275a8550 	addiu	k0,k0,-31408
9d0082b8:	00000000 	nop
9d0082bc:	40046800 	mfc0	a0,c0_cause
9d0082c0:	40056000 	mfc0	a1,c0_status
9d0082c4:	0340f809 	jalr	k0
9d0082c8:	00000000 	nop
9d0082cc:	8fa80050 	lw	t0,80(sp)
9d0082d0:	01000011 	mthi	t0
9d0082d4:	8fa8004c 	lw	t0,76(sp)
9d0082d8:	01000013 	mtlo	t0
9d0082dc:	8fa10004 	lw	at,4(sp)
9d0082e0:	8fa20008 	lw	v0,8(sp)
9d0082e4:	8fa3000c 	lw	v1,12(sp)
9d0082e8:	8fa40010 	lw	a0,16(sp)
9d0082ec:	8fa50014 	lw	a1,20(sp)
9d0082f0:	8fa60018 	lw	a2,24(sp)
9d0082f4:	8fa7001c 	lw	a3,28(sp)
9d0082f8:	8fa80020 	lw	t0,32(sp)
9d0082fc:	8fa90024 	lw	t1,36(sp)
9d008300:	8faa0028 	lw	t2,40(sp)
9d008304:	8fab002c 	lw	t3,44(sp)
9d008308:	8fac0030 	lw	t4,48(sp)
9d00830c:	8fad0034 	lw	t5,52(sp)
9d008310:	8fae0038 	lw	t6,56(sp)
9d008314:	8faf003c 	lw	t7,60(sp)
9d008318:	8fb80040 	lw	t8,64(sp)
9d00831c:	8fb90044 	lw	t9,68(sp)
9d008320:	8fbf0048 	lw	ra,72(sp)
9d008324:	27bd0058 	addiu	sp,sp,88
9d008328:	000000c0 	ehb
9d00832c:	42000018 	eret

Disassembly of section .text.dptoli:

9d008330 <__fixdfsi>:
9d008330:	00053ac0 00045542 00ea3825 3c018000     .:..BU..%8.....<
9d008340:	00e13825 00055040 000a5542 2406041e     %8..@P..BU.....$
9d008350:	00ca3023 18c0000c 00000000 2cc10020     #0.......... ..,
9d008360:	14200002 00000000 34070000              .. ........4

9d00836c <L42>:
9d00836c:	04a10002 	bgez	a1,9d008378 <i50>
9d008370:	00c73806 	srlv	a3,a3,a2
9d008374:	00073823 	negu	a3,a3

9d008378 <i50>:
9d008378:	00071025 	or	v0,zero,a3

9d00837c <I999>:
9d00837c:	03e00008 	jr	ra
9d008380:	00000000 	nop
9d008384:	00000000 	nop

9d008388 <Inaninf>:
9d008388:	10800002 	beqz	a0,9d008394 <i51>
9d00838c:	00000000 	nop
9d008390:	34a50001 	ori	a1,a1,0x1

9d008394 <i51>:
9d008394:	3c017ff0 	lui	at,0x7ff0
9d008398:	34210001 	ori	at,at,0x1
9d00839c:	00a1082b 	sltu	at,a1,at
9d0083a0:	14200003 	bnez	at,9d0083b0 <i52>
9d0083a4:	00000000 	nop
9d0083a8:	1000fff4 	b	9d00837c <I999>
9d0083ac:	3c028000 	lui	v0,0x8000

9d0083b0 <i52>:
9d0083b0:	3c027fff 	lui	v0,0x7fff
9d0083b4:	1000fff1 	b	9d00837c <I999>
9d0083b8:	3442ffff 	ori	v0,v0,0xffff
9d0083bc:	00000000 	nop

Disassembly of section .text:

9d0083c0 <__dinit_copy>:
9d0083c0:	03e00008 	jr	ra
9d0083c4:	00000000 	nop

9d0083c8 <__pic32_data_init>:
9d0083c8:	03e01825 	move	v1,ra

9d0083cc <_dinit_init>:
9d0083cc:	3c049d01 	lui	a0,0x9d01
9d0083d0:	24848664 	addiu	a0,a0,-31132
9d0083d4:	10800016 	beqz	a0,9d008430 <_dinit_init+0x64>
9d0083d8:	00000000 	nop
9d0083dc:	8c850000 	lw	a1,0(a0)
9d0083e0:	10a00013 	beqz	a1,9d008430 <_dinit_init+0x64>
9d0083e4:	24840004 	addiu	a0,a0,4
9d0083e8:	8c860000 	lw	a2,0(a0)
9d0083ec:	24840004 	addiu	a0,a0,4
9d0083f0:	848b0000 	lh	t3,0(a0)
9d0083f4:	24840004 	addiu	a0,a0,4
9d0083f8:	3c0c9d01 	lui	t4,0x9d01
9d0083fc:	258c86d0 	addiu	t4,t4,-31024
9d008400:	000b5880 	sll	t3,t3,0x2
9d008404:	016c6021 	addu	t4,t3,t4
9d008408:	8d8c0000 	lw	t4,0(t4)
9d00840c:	0180f809 	jalr	t4
9d008410:	00000000 	nop
9d008414:	00402025 	move	a0,v0
9d008418:	24840003 	addiu	a0,a0,3
9d00841c:	2406fffc 	li	a2,-4
9d008420:	00c42024 	and	a0,a2,a0
9d008424:	8c850000 	lw	a1,0(a0)
9d008428:	14a0ffec 	bnez	a1,9d0083dc <_dinit_init+0x10>
9d00842c:	00000000 	nop
9d008430:	0060f825 	move	ra,v1
9d008434:	03e00008 	jr	ra
9d008438:	00000000 	nop

Disassembly of section .text.litodp:

9d00843c <__floatsidf>:
9d00843c:	24050000 00054825 00053825 00043025     ...$%H..%8..%0..
9d00844c:	10c0000c 00000000 04c10006 00000000     ................
9d00845c:	3c098000 0005502b 00052823 00063023     ...<+P..#(..#0..
9d00846c:	00ca3023                                #0..

9d008470 <i40>:
9d008470:	2407041e 	li	a3,1054
9d008474:	70c84020 	clz	t0,a2
9d008478:	00e83823 	subu	a3,a3,t0
9d00847c:	01063004 	sllv	a2,a2,t0

9d008480 <i39>:
9d008480:	000542c2 	srl	t0,a1,0xb
9d008484:	00065540 	sll	t2,a2,0x15
9d008488:	010a4025 	or	t0,t0,t2
9d00848c:	00065040 	sll	t2,a2,0x1
9d008490:	000a5302 	srl	t2,t2,0xc
9d008494:	012a4825 	or	t1,t1,t2
9d008498:	00075500 	sll	t2,a3,0x14
9d00849c:	012a4825 	or	t1,t1,t2
9d0084a0:	00081025 	or	v0,zero,t0
9d0084a4:	00091825 	or	v1,zero,t1

9d0084a8 <E999>:
9d0084a8:	03e00008 	jr	ra
9d0084ac:	00000000 	nop
9d0084b0:	00000000 	nop

Disassembly of section .text.main_entry:

9d0084b4 <_main_entry>:
9d0084b4:	3c040000 	lui	a0,0x0
9d0084b8:	27bdffe8 	addiu	sp,sp,-24
9d0084bc:	24840000 	addiu	a0,a0,0
9d0084c0:	10800003 	beqz	a0,9d0084d0 <_main_entry+0x1c>
9d0084c4:	afbf0014 	sw	ra,20(sp)
9d0084c8:	0080f809 	jalr	a0
9d0084cc:	00000000 	nop
9d0084d0:	30840000 	andi	a0,a0,0x0
9d0084d4:	30a50000 	andi	a1,a1,0x0
9d0084d8:	3c089d01 	lui	t0,0x9d01
9d0084dc:	25088224 	addiu	t0,t0,-32220
9d0084e0:	0100f809 	jalr	t0
9d0084e4:	00000000 	nop

9d0084e8 <__crt0_exit>:
9d0084e8:	3c020000 24420000 10400003 00000000     ...<..B$..@.....
9d0084f8:	0040f809 00000000 1000fff9 00000000     ..@.............

Disassembly of section .text._bootstrap_exception_handler:

9d008508 <_bootstrap_exception_handler>:
9d008508:	3c020000 	lui	v0,0x0
9d00850c:	24420000 	addiu	v0,v0,0
9d008510:	10400005 	beqz	v0,9d008528 <_bootstrap_exception_handler+0x20>
9d008514:	3c020000 	lui	v0,0x0
9d008518:	24420000 	addiu	v0,v0,0
9d00851c:	10400003 	beqz	v0,9d00852c <_bootstrap_exception_handler+0x24>
9d008520:	3c029d01 	lui	v0,0x9d01
9d008524:	7000003f 	sdbbp
9d008528:	3c029d01 	lui	v0,0x9d01
9d00852c:	244285e0 	addiu	v0,v0,-31264
9d008530:	10400005 	beqz	v0,9d008548 <_bootstrap_exception_handler+0x40>
9d008534:	00000000 	nop
9d008538:	27bdffe8 	addiu	sp,sp,-24
9d00853c:	afbf0014 	sw	ra,20(sp)
9d008540:	0040f809 	jalr	v0
9d008544:	00000000 	nop
9d008548:	1000ffff 	b	9d008548 <_bootstrap_exception_handler+0x40>
9d00854c:	00000000 	nop

Disassembly of section .text._general_exception_handler:

9d008550 <_general_exception_handler>:
9d008550:	3c020000 	lui	v0,0x0
9d008554:	24420000 	addiu	v0,v0,0
9d008558:	10400005 	beqz	v0,9d008570 <_general_exception_handler+0x20>
9d00855c:	3c020000 	lui	v0,0x0
9d008560:	24420000 	addiu	v0,v0,0
9d008564:	10400003 	beqz	v0,9d008574 <_general_exception_handler+0x24>
9d008568:	3c029d01 	lui	v0,0x9d01
9d00856c:	7000003f 	sdbbp
9d008570:	3c029d01 	lui	v0,0x9d01
9d008574:	244285e0 	addiu	v0,v0,-31264
9d008578:	10400005 	beqz	v0,9d008590 <_general_exception_handler+0x40>
9d00857c:	00000000 	nop
9d008580:	27bdffe8 	addiu	sp,sp,-24
9d008584:	afbf0014 	sw	ra,20(sp)
9d008588:	0040f809 	jalr	v0
9d00858c:	00000000 	nop
9d008590:	1000ffff 	b	9d008590 <_general_exception_handler+0x40>
9d008594:	00000000 	nop

Disassembly of section .vector_default:

9d008598 <_DefaultInterrupt>:
9d008598:	3c020000 	lui	v0,0x0
9d00859c:	24420000 	addiu	v0,v0,0
9d0085a0:	10400007 	beqz	v0,9d0085c0 <_DefaultInterrupt+0x28>
9d0085a4:	3c020000 	lui	v0,0x0
9d0085a8:	24420000 	addiu	v0,v0,0
9d0085ac:	50400005 	beqzl	v0,9d0085c4 <_DefaultInterrupt+0x2c>
9d0085b0:	3c029d01 	lui	v0,0x9d01
9d0085b4:	7000003f 	sdbbp
9d0085b8:	03e00008 	jr	ra
9d0085bc:	00000000 	nop
9d0085c0:	3c029d01 	lui	v0,0x9d01
9d0085c4:	244285e0 	addiu	v0,v0,-31264
9d0085c8:	10400003 	beqz	v0,9d0085d8 <_DefaultInterrupt+0x40>
9d0085cc:	00000000 	nop
9d0085d0:	0040f809 	jalr	v0
9d0085d4:	00000000 	nop
9d0085d8:	03e00008 	jr	ra
9d0085dc:	00000000 	nop

Disassembly of section .text:

9d0085e0 <__pic32_software_reset>:
9d0085e0:	41606000 	di
9d0085e4:	000000c0 	ehb
9d0085e8:	3c03aa99 	lui	v1,0xaa99
9d0085ec:	3c02bf81 	lui	v0,0xbf81
9d0085f0:	24636655 	addiu	v1,v1,26197
9d0085f4:	ac40f230 	sw	zero,-3536(v0)
9d0085f8:	ac43f230 	sw	v1,-3536(v0)
9d0085fc:	3c035566 	lui	v1,0x5566
9d008600:	346399aa 	ori	v1,v1,0x99aa
9d008604:	ac43f230 	sw	v1,-3536(v0)
9d008608:	3c02bf81 	lui	v0,0xbf81
9d00860c:	24030001 	li	v1,1
9d008610:	ac43f618 	sw	v1,-2536(v0)
9d008614:	3c02bf81 	lui	v0,0xbf81
9d008618:	8c42f610 	lw	v0,-2544(v0)
9d00861c:	0b40217a 	j	9d0085e8 <__pic32_software_reset+0x8>
9d008620:	00000000 	nop

9d008624 <__floatunsidf>:
9d008624:	27bdffe8 	addiu	sp,sp,-24
9d008628:	afb00010 	sw	s0,16(sp)
9d00862c:	afbf0014 	sw	ra,20(sp)
9d008630:	0f40210f 	jal	9d00843c <__floatsidf>
9d008634:	00808025 	move	s0,a0
9d008638:	06010006 	bgez	s0,9d008654 <__floatunsidf+0x30>
9d00863c:	00602825 	move	a1,v1
9d008640:	3c049d00 	lui	a0,0x9d00
9d008644:	8c867498 	lw	a2,29848(a0)
9d008648:	8c87749c 	lw	a3,29852(a0)
9d00864c:	0f401d2a 	jal	9d0074a8 <__adddf3>
9d008650:	00402025 	move	a0,v0
9d008654:	8fbf0014 	lw	ra,20(sp)
9d008658:	8fb00010 	lw	s0,16(sp)
9d00865c:	03e00008 	jr	ra
9d008660:	27bd0018 	addiu	sp,sp,24

Disassembly of section .dinit:

9d008664 <.dinit>:
9d008664:	a0000004 	sb	zero,4(zero)
9d008668:	00000fa0 	0xfa0
9d00866c:	00000000 	nop
9d008670:	a0000000 	sb	zero,0(zero)
9d008674:	00000004 	sllv	zero,zero,zero
	...
9d008680:	66666666 	0x66666666

Disassembly of section .text:

9d0086a0 <_nmi_handler>:
9d0086a0:	401a6000 	mfc0	k0,c0_status
9d0086a4:	3c1bffbf 	lui	k1,0xffbf
9d0086a8:	377bffff 	ori	k1,k1,0xffff
9d0086ac:	035bd024 	and	k0,k0,k1
9d0086b0:	409a6000 	mtc0	k0,c0_status
9d0086b4:	42000018 	eret

9d0086b8 <__dinit_clear>:
9d0086b8:	24c6ffff 	addiu	a2,a2,-1
9d0086bc:	a0a00000 	sb	zero,0(a1)
9d0086c0:	14c0fffd 	bnez	a2,9d0086b8 <__dinit_clear>
9d0086c4:	24a50001 	addiu	a1,a1,1
9d0086c8:	03e00008 	jr	ra
9d0086cc:	00801025 	move	v0,a0

Disassembly of section .rodata:

9d0086d0 <_dinit_func_table>:
9d0086d0:	9d0086b8 9d0083c0 9d0083c0 9d0083c0     ................
9d0086e0:	9d0083c0                                ....

Disassembly of section .text._on_reset:

9d0086e4 <_on_reset>:
9d0086e4:	03e00008 	jr	ra
9d0086e8:	00000000 	nop

Disassembly of section .text._on_bootstrap:

9d0086ec <_on_bootstrap>:
9d0086ec:	03e00008 	jr	ra
9d0086f0:	00000000 	nop
