
out.elf:     file format elf32-tradlittlemips


Disassembly of section .reset:

bd007000 <_reset>:
bd007000:	0f401c02 	jal	bd007008 <_startup>
bd007004:	00000000 	nop

bd007008 <_startup>:
bd007008:	401a6000 	mfc0	k0,c0_status
bd00700c:	7f5a04c0 	ext	k0,k0,0x13,0x1
bd007010:	13400005 	beqz	k0,bd007028 <_no_nmi>
bd007014:	00000000 	nop
bd007018:	3c1a9d01 	lui	k0,0x9d01
bd00701c:	275ab140 	addiu	k0,k0,-20160
bd007020:	03400008 	jr	k0
bd007024:	00000000 	nop

bd007028 <_no_nmi>:
bd007028:	3c1da001 	lui	sp,0xa001
bd00702c:	27bdfff8 	addiu	sp,sp,-8
bd007030:	3c1ca000 	lui	gp,0xa000
bd007034:	279c7ff0 	addiu	gp,gp,32752
bd007038:	3c089d01 	lui	t0,0x9d01
bd00703c:	2508b19c 	addiu	t0,t0,-20068
bd007040:	0100f809 	jalr	t0
bd007044:	00000000 	nop
bd007048:	3c089d01 	lui	t0,0x9d01
bd00704c:	2508a9c8 	addiu	t0,t0,-22072
bd007050:	0100f809 	jalr	t0
bd007054:	00000000 	nop
bd007058:	3c090000 	lui	t1,0x0
bd00705c:	25290000 	addiu	t1,t1,0
bd007060:	11200010 	beqz	t1,bd0070a4 <_ramfunc_done>
bd007064:	00000000 	nop
bd007068:	3c090001 	lui	t1,0x1
bd00706c:	25290000 	addiu	t1,t1,0
bd007070:	3c0abf88 	lui	t2,0xbf88
bd007074:	254a2010 	addiu	t2,t2,8208
bd007078:	ad490000 	sw	t1,0(t2)
bd00707c:	3c090001 	lui	t1,0x1
bd007080:	25290000 	addiu	t1,t1,0
bd007084:	3c0abf88 	lui	t2,0xbf88
bd007088:	254a2020 	addiu	t2,t2,8224
bd00708c:	ad490000 	sw	t1,0(t2)
bd007090:	3c090001 	lui	t1,0x1
bd007094:	25290000 	addiu	t1,t1,0
bd007098:	3c0abf88 	lui	t2,0xbf88
bd00709c:	254a2030 	addiu	t2,t2,8240
bd0070a0:	ad490000 	sw	t1,0(t2)

bd0070a4 <_ramfunc_done>:
bd0070a4:	40804800 	mtc0	zero,c0_count
bd0070a8:	240affff 	li	t2,-1
bd0070ac:	408a5800 	mtc0	t2,c0_compare
bd0070b0:	3c080040 	lui	t0,0x40
bd0070b4:	400a6000 	mfc0	t2,c0_status
bd0070b8:	010a5025 	or	t2,t0,t2
bd0070bc:	408a6000 	mtc0	t2,c0_status
bd0070c0:	3c099d00 	lui	t1,0x9d00
bd0070c4:	25296000 	addiu	t1,t1,24576
bd0070c8:	000000c0 	ehb
bd0070cc:	40897801 	mtc0	t1,c0_ebase
bd0070d0:	3c090000 	lui	t1,0x0
bd0070d4:	25290001 	addiu	t1,t1,1
bd0070d8:	240a0000 	li	t2,0
bd0070dc:	7d2a4944 	ins	t2,t1,0x5,0x5
bd0070e0:	408a6001 	mtc0	t2,c0_intctl
bd0070e4:	3c090080 	lui	t1,0x80
bd0070e8:	40896800 	mtc0	t1,c0_cause
bd0070ec:	40088000 	mfc0	t0,c0_config
bd0070f0:	7d090580 	ext	t1,t0,0x16,0x1
bd0070f4:	00094c40 	sll	t1,t1,0x11
bd0070f8:	40086000 	mfc0	t0,c0_status
bd0070fc:	3c010058 	lui	at,0x58
bd007100:	01014024 	and	t0,t0,at
bd007104:	01284025 	or	t0,t1,t0
bd007108:	40886000 	mtc0	t0,c0_status
bd00710c:	000000c0 	ehb
bd007110:	3c089d01 	lui	t0,0x9d01
bd007114:	2508b1a4 	addiu	t0,t0,-20060
bd007118:	0100f809 	jalr	t0
bd00711c:	00000000 	nop
bd007120:	40086000 	mfc0	t0,c0_status
bd007124:	3c01ffbf 	lui	at,0xffbf
bd007128:	3421ffff 	ori	at,at,0xffff
bd00712c:	01014024 	and	t0,t0,at
bd007130:	40886000 	mtc0	t0,c0_status
bd007134:	30840000 	andi	a0,a0,0x0
bd007138:	30a50000 	andi	a1,a1,0x0
bd00713c:	3c089d01 	lui	t0,0x9d01
bd007140:	2508acc8 	addiu	t0,t0,-21304
bd007144:	01000008 	jr	t0
bd007148:	00000000 	nop

Disassembly of section .bev_excpt:

bfc07380 <_bev_exception>:
bfc07380:	3c1a9d01 	lui	k0,0x9d01
bfc07384:	275aad6c 	addiu	k0,k0,-21140
bfc07388:	03400008 	jr	k0
bfc0738c:	00000000 	nop

Disassembly of section .app_excpt:

9d006180 <_gen_exception>:
9d006180:	3c1a9d01 	lui	k0,0x9d01
9d006184:	275aa5f8 	addiu	k0,k0,-23048
9d006188:	03400008 	jr	k0
9d00618c:	00000000 	nop

Disassembly of section .vector_0:

9d006200 <__vector_dispatch_0>:
9d006200:	0b402b7f 	j	9d00adfc <_DefaultInterrupt>
9d006204:	00000000 	nop

Disassembly of section .vector_1:

9d006220 <__vector_dispatch_1>:
9d006220:	0b402b7f 	j	9d00adfc <_DefaultInterrupt>
9d006224:	00000000 	nop

Disassembly of section .vector_2:

9d006240 <__vector_dispatch_2>:
9d006240:	0b402b7f 	j	9d00adfc <_DefaultInterrupt>
9d006244:	00000000 	nop

Disassembly of section .vector_3:

9d006260 <__vector_dispatch_3>:
9d006260:	0b40269d 	j	9d009a74 <Ext0ISR>
9d006264:	00000000 	nop

Disassembly of section .vector_4:

9d006280 <__vector_dispatch_4>:
9d006280:	0b402b7f 	j	9d00adfc <_DefaultInterrupt>
9d006284:	00000000 	nop

Disassembly of section .vector_5:

9d0062a0 <__vector_dispatch_5>:
9d0062a0:	0b402b7f 	j	9d00adfc <_DefaultInterrupt>
9d0062a4:	00000000 	nop

Disassembly of section .vector_6:

9d0062c0 <__vector_dispatch_6>:
9d0062c0:	0b402b7f 	j	9d00adfc <_DefaultInterrupt>
9d0062c4:	00000000 	nop

Disassembly of section .vector_7:

9d0062e0 <__vector_dispatch_7>:
9d0062e0:	0b402b7f 	j	9d00adfc <_DefaultInterrupt>
9d0062e4:	00000000 	nop

Disassembly of section .vector_8:

9d006300 <__vector_dispatch_8>:
9d006300:	0b402b7f 	j	9d00adfc <_DefaultInterrupt>
9d006304:	00000000 	nop

Disassembly of section .vector_9:

9d006320 <__vector_dispatch_9>:
9d006320:	0b402b7f 	j	9d00adfc <_DefaultInterrupt>
9d006324:	00000000 	nop

Disassembly of section .vector_10:

9d006340 <__vector_dispatch_10>:
9d006340:	0b402b7f 	j	9d00adfc <_DefaultInterrupt>
9d006344:	00000000 	nop

Disassembly of section .vector_11:

9d006360 <__vector_dispatch_11>:
9d006360:	0b402b7f 	j	9d00adfc <_DefaultInterrupt>
9d006364:	00000000 	nop

Disassembly of section .vector_12:

9d006380 <__vector_dispatch_12>:
9d006380:	0b402b7f 	j	9d00adfc <_DefaultInterrupt>
9d006384:	00000000 	nop

Disassembly of section .vector_13:

9d0063a0 <__vector_dispatch_13>:
9d0063a0:	0b402b7f 	j	9d00adfc <_DefaultInterrupt>
9d0063a4:	00000000 	nop

Disassembly of section .vector_14:

9d0063c0 <__vector_dispatch_14>:
9d0063c0:	0b402b7f 	j	9d00adfc <_DefaultInterrupt>
9d0063c4:	00000000 	nop

Disassembly of section .vector_15:

9d0063e0 <__vector_dispatch_15>:
9d0063e0:	0b402b7f 	j	9d00adfc <_DefaultInterrupt>
9d0063e4:	00000000 	nop

Disassembly of section .vector_16:

9d006400 <__vector_dispatch_16>:
9d006400:	0b402b7f 	j	9d00adfc <_DefaultInterrupt>
9d006404:	00000000 	nop

Disassembly of section .vector_17:

9d006420 <__vector_dispatch_17>:
9d006420:	0b402b7f 	j	9d00adfc <_DefaultInterrupt>
9d006424:	00000000 	nop

Disassembly of section .vector_18:

9d006440 <__vector_dispatch_18>:
9d006440:	0b402b7f 	j	9d00adfc <_DefaultInterrupt>
9d006444:	00000000 	nop

Disassembly of section .vector_19:

9d006460 <__vector_dispatch_19>:
9d006460:	0b402b7f 	j	9d00adfc <_DefaultInterrupt>
9d006464:	00000000 	nop

Disassembly of section .vector_20:

9d006480 <__vector_dispatch_20>:
9d006480:	0b402b7f 	j	9d00adfc <_DefaultInterrupt>
9d006484:	00000000 	nop

Disassembly of section .vector_21:

9d0064a0 <__vector_dispatch_21>:
9d0064a0:	0b402b7f 	j	9d00adfc <_DefaultInterrupt>
9d0064a4:	00000000 	nop

Disassembly of section .vector_22:

9d0064c0 <__vector_dispatch_22>:
9d0064c0:	0b402b7f 	j	9d00adfc <_DefaultInterrupt>
9d0064c4:	00000000 	nop

Disassembly of section .vector_23:

9d0064e0 <__vector_dispatch_23>:
9d0064e0:	0b402b7f 	j	9d00adfc <_DefaultInterrupt>
9d0064e4:	00000000 	nop

Disassembly of section .vector_24:

9d006500 <__vector_dispatch_24>:
9d006500:	0b402b7f 	j	9d00adfc <_DefaultInterrupt>
9d006504:	00000000 	nop

Disassembly of section .vector_25:

9d006520 <__vector_dispatch_25>:
9d006520:	0b402b7f 	j	9d00adfc <_DefaultInterrupt>
9d006524:	00000000 	nop

Disassembly of section .vector_26:

9d006540 <__vector_dispatch_26>:
9d006540:	0b402b7f 	j	9d00adfc <_DefaultInterrupt>
9d006544:	00000000 	nop

Disassembly of section .vector_27:

9d006560 <__vector_dispatch_27>:
9d006560:	0b402b7f 	j	9d00adfc <_DefaultInterrupt>
9d006564:	00000000 	nop

Disassembly of section .vector_28:

9d006580 <__vector_dispatch_28>:
9d006580:	0b402b7f 	j	9d00adfc <_DefaultInterrupt>
9d006584:	00000000 	nop

Disassembly of section .vector_29:

9d0065a0 <__vector_dispatch_29>:
9d0065a0:	0b402b7f 	j	9d00adfc <_DefaultInterrupt>
9d0065a4:	00000000 	nop

Disassembly of section .vector_30:

9d0065c0 <__vector_dispatch_30>:
9d0065c0:	0b402b7f 	j	9d00adfc <_DefaultInterrupt>
9d0065c4:	00000000 	nop

Disassembly of section .vector_31:

9d0065e0 <__vector_dispatch_31>:
9d0065e0:	0b402b7f 	j	9d00adfc <_DefaultInterrupt>
9d0065e4:	00000000 	nop

Disassembly of section .vector_32:

9d006600 <__vector_dispatch_32>:
9d006600:	0b402b7f 	j	9d00adfc <_DefaultInterrupt>
9d006604:	00000000 	nop

Disassembly of section .vector_33:

9d006620 <__vector_dispatch_33>:
9d006620:	0b402b7f 	j	9d00adfc <_DefaultInterrupt>
9d006624:	00000000 	nop

Disassembly of section .vector_34:

9d006640 <__vector_dispatch_34>:
9d006640:	0b402b7f 	j	9d00adfc <_DefaultInterrupt>
9d006644:	00000000 	nop

Disassembly of section .vector_35:

9d006660 <__vector_dispatch_35>:
9d006660:	0b402b7f 	j	9d00adfc <_DefaultInterrupt>
9d006664:	00000000 	nop

Disassembly of section .vector_36:

9d006680 <__vector_dispatch_36>:
9d006680:	0b402b7f 	j	9d00adfc <_DefaultInterrupt>
9d006684:	00000000 	nop

Disassembly of section .vector_37:

9d0066a0 <__vector_dispatch_37>:
9d0066a0:	0b402b7f 	j	9d00adfc <_DefaultInterrupt>
9d0066a4:	00000000 	nop

Disassembly of section .vector_38:

9d0066c0 <__vector_dispatch_38>:
9d0066c0:	0b402b7f 	j	9d00adfc <_DefaultInterrupt>
9d0066c4:	00000000 	nop

Disassembly of section .vector_39:

9d0066e0 <__vector_dispatch_39>:
9d0066e0:	0b402b7f 	j	9d00adfc <_DefaultInterrupt>
9d0066e4:	00000000 	nop

Disassembly of section .vector_40:

9d006700 <__vector_dispatch_40>:
9d006700:	0b402b7f 	j	9d00adfc <_DefaultInterrupt>
9d006704:	00000000 	nop

Disassembly of section .vector_41:

9d006720 <__vector_dispatch_41>:
9d006720:	0b402b7f 	j	9d00adfc <_DefaultInterrupt>
9d006724:	00000000 	nop

Disassembly of section .vector_42:

9d006740 <__vector_dispatch_42>:
9d006740:	0b402b7f 	j	9d00adfc <_DefaultInterrupt>
9d006744:	00000000 	nop

Disassembly of section .vector_43:

9d006760 <__vector_dispatch_43>:
9d006760:	0b402b7f 	j	9d00adfc <_DefaultInterrupt>
9d006764:	00000000 	nop

Disassembly of section .rodata:

9d007490 <.rodata>:
9d007490:	00000000 	nop
9d007494:	41f00000 	0x41f00000
9d007498:	00464e49 	0x464e49
9d00749c:	00666e69 	0x666e69
9d0074a0:	004e414e 	0x4e414e
9d0074a4:	006e616e 	0x6e616e
9d0074a8:	00000000 	nop
9d0074ac:	3ff00000 	0x3ff00000
9d0074b0:	00000000 	nop
9d0074b4:	40240000 	0x40240000
9d0074b8:	00000000 	nop
9d0074bc:	43500000 	c0	0x1500000
9d0074c0:	00000000 	nop
9d0074c4:	40140000 	mfc0	s4,c0_index
9d0074c8:	6c696e28 	0x6c696e28
9d0074cc:	00000029 	0x29
9d0074d0:	00000025 	move	zero,zero
	...
9d0074dc:	43e00000 	c0	0x1e00000
9d0074e0:	00000000 	nop
9d0074e4:	c3e00000 	ll	zero,0(ra)
9d0074e8:	f0000000 	0xf0000000
9d0074ec:	341fffff 	li	ra,0xffff
9d0074f0:	00000000 	nop
9d0074f4:	07f00000 	bltzal	ra,9d0074f8 <__vector_dispatch_43+0xd98>
9d0074f8:	00000000 	nop
9d0074fc:	7fe00000 	ext	zero,ra,0x0,0x1
9d007500:	00000000 	nop
9d007504:	03600000 	0x3600000
9d007508:	00000000 	nop
9d00750c:	41f00000 	0x41f00000

Disassembly of section ._debug_exception:

bfc00480 <__DbgExecReturn>:
bfc00480:	409bf800 	mtc0	k1,c0_desave
bfc00484:	000000c0 	ehb
bfc00488:	3c1b9d01 	lui	k1,0x9d01
bfc0048c:	277bae44 	addiu	k1,k1,-20924
bfc00490:	13600002 	beqz	k1,bfc0049c <__DbgExecReturn+0x1c>
bfc00494:	00000000 	nop
bfc00498:	409bc000 	mtc0	k1,c0_depc
bfc0049c:	401bf800 	mfc0	k1,c0_desave
bfc004a0:	000000c0 	ehb
bfc004a4:	4200001f 	deret
bfc004a8:	00000000 	nop

Disassembly of section .text.__fmt_fp:

9d007510 <__fmt_fp>:
9d007510:	27bdff78 	addiu	sp,sp,-136
9d007514:	afa70094 	sw	a3,148(sp)
9d007518:	8ca20000 	lw	v0,0(a1)
9d00751c:	afb3006c 	sw	s3,108(sp)
9d007520:	8cd30004 	lw	s3,4(a2)
9d007524:	afa2001c 	sw	v0,28(sp)
9d007528:	8ca20008 	lw	v0,8(a1)
9d00752c:	afb10064 	sw	s1,100(sp)
9d007530:	afb00060 	sw	s0,96(sp)
9d007534:	afa20020 	sw	v0,32(sp)
9d007538:	8ca20010 	lw	v0,16(a1)
9d00753c:	afa40088 	sw	a0,136(sp)
9d007540:	afa5008c 	sw	a1,140(sp)
9d007544:	afa20034 	sw	v0,52(sp)
9d007548:	8cc20000 	lw	v0,0(a2)
9d00754c:	8cb10004 	lw	s1,4(a1)
9d007550:	8cb0000c 	lw	s0,12(a1)
9d007554:	afa20018 	sw	v0,24(sp)
9d007558:	8fa30018 	lw	v1,24(sp)
9d00755c:	00003025 	move	a2,zero
9d007560:	00003825 	move	a3,zero
9d007564:	00602025 	move	a0,v1
9d007568:	02602825 	move	a1,s3
9d00756c:	afbf0084 	sw	ra,132(sp)
9d007570:	afbe0080 	sw	s8,128(sp)
9d007574:	afb7007c 	sw	s7,124(sp)
9d007578:	afb60078 	sw	s6,120(sp)
9d00757c:	afb50074 	sw	s5,116(sp)
9d007580:	afb40070 	sw	s4,112(sp)
9d007584:	0f4027fc 	jal	9d009ff0 <dpcmplt>
9d007588:	afb20068 	sw	s2,104(sp)
9d00758c:	0440000d 	bltz	v0,9d0075c4 <__fmt_fp+0xb4>
9d007590:	3c028000 	lui	v0,0x8000
9d007594:	8fa2001c 	lw	v0,28(sp)
9d007598:	30420004 	andi	v0,v0,0x4
9d00759c:	14400037 	bnez	v0,9d00767c <__fmt_fp+0x16c>
9d0075a0:	8fb20020 	lw	s2,32(sp)
9d0075a4:	8fa2001c 	lw	v0,28(sp)
9d0075a8:	30420008 	andi	v0,v0,0x8
9d0075ac:	1040000c 	beqz	v0,9d0075e0 <__fmt_fp+0xd0>
9d0075b0:	afa20024 	sw	v0,36(sp)
9d0075b4:	24020020 	li	v0,32
9d0075b8:	a2020000 	sb	v0,0(s0)
9d0075bc:	10000006 	b	9d0075d8 <__fmt_fp+0xc8>
9d0075c0:	2652ffff 	addiu	s2,s2,-1
9d0075c4:	00539826 	xor	s3,v0,s3
9d0075c8:	2402002d 	li	v0,45
9d0075cc:	a2020000 	sb	v0,0(s0)
9d0075d0:	8fa20020 	lw	v0,32(sp)
9d0075d4:	2452ffff 	addiu	s2,v0,-1
9d0075d8:	24020001 	li	v0,1
9d0075dc:	afa20024 	sw	v0,36(sp)
9d0075e0:	8fa30024 	lw	v1,36(sp)
9d0075e4:	02031821 	addu	v1,s0,v1
9d0075e8:	afa3002c 	sw	v1,44(sp)
9d0075ec:	8fa30018 	lw	v1,24(sp)
9d0075f0:	14600026 	bnez	v1,9d00768c <__fmt_fp+0x17c>
9d0075f4:	7e62f000 	ext	v0,s3,0x0,0x1f
9d0075f8:	3c037ff0 	lui	v1,0x7ff0
9d0075fc:	14430024 	bne	v0,v1,9d007690 <__fmt_fp+0x180>
9d007600:	3c047ff0 	lui	a0,0x7ff0
9d007604:	8fa20094 	lw	v0,148(sp)
9d007608:	2442ffbf 	addiu	v0,v0,-65
9d00760c:	2c42001a 	sltiu	v0,v0,26
9d007610:	1040001c 	beqz	v0,9d007684 <__fmt_fp+0x174>
9d007614:	3c059d00 	lui	a1,0x9d00
9d007618:	3c059d00 	lui	a1,0x9d00
9d00761c:	24a57498 	addiu	a1,a1,29848
9d007620:	0f402c1f 	jal	9d00b07c <strcpy>
9d007624:	8fa4002c 	lw	a0,44(sp)
9d007628:	0f402bdf 	jal	9d00af7c <strlen>
9d00762c:	02002025 	move	a0,s0
9d007630:	8fa3001c 	lw	v1,28(sp)
9d007634:	8fa70020 	lw	a3,32(sp)
9d007638:	8fa40088 	lw	a0,136(sp)
9d00763c:	afa30010 	sw	v1,16(sp)
9d007640:	02002825 	move	a1,s0
9d007644:	0f402889 	jal	9d00a224 <__pad>
9d007648:	00403025 	move	a2,v0
9d00764c:	8fbf0084 	lw	ra,132(sp)
9d007650:	8fbe0080 	lw	s8,128(sp)
9d007654:	8fb7007c 	lw	s7,124(sp)
9d007658:	8fb60078 	lw	s6,120(sp)
9d00765c:	8fb50074 	lw	s5,116(sp)
9d007660:	8fb40070 	lw	s4,112(sp)
9d007664:	8fb3006c 	lw	s3,108(sp)
9d007668:	8fb20068 	lw	s2,104(sp)
9d00766c:	8fb10064 	lw	s1,100(sp)
9d007670:	8fb00060 	lw	s0,96(sp)
9d007674:	03e00008 	jr	ra
9d007678:	27bd0088 	addiu	sp,sp,136
9d00767c:	1000ffd3 	b	9d0075cc <__fmt_fp+0xbc>
9d007680:	2402002b 	li	v0,43
9d007684:	1000ffe6 	b	9d007620 <__fmt_fp+0x110>
9d007688:	24a5749c 	addiu	a1,a1,29852
9d00768c:	3c047ff0 	lui	a0,0x7ff0
9d007690:	24830001 	addiu	v1,a0,1
9d007694:	0043182b 	sltu	v1,v0,v1
9d007698:	50600005 	beqzl	v1,9d0076b0 <__fmt_fp+0x1a0>
9d00769c:	8fa20094 	lw	v0,148(sp)
9d0076a0:	1444000c 	bne	v0,a0,9d0076d4 <__fmt_fp+0x1c4>
9d0076a4:	8fa20018 	lw	v0,24(sp)
9d0076a8:	1040000a 	beqz	v0,9d0076d4 <__fmt_fp+0x1c4>
9d0076ac:	8fa20094 	lw	v0,148(sp)
9d0076b0:	2442ffbf 	addiu	v0,v0,-65
9d0076b4:	2c42001a 	sltiu	v0,v0,26
9d0076b8:	50400004 	beqzl	v0,9d0076cc <__fmt_fp+0x1bc>
9d0076bc:	3c059d00 	lui	a1,0x9d00
9d0076c0:	3c059d00 	lui	a1,0x9d00
9d0076c4:	1000ffd6 	b	9d007620 <__fmt_fp+0x110>
9d0076c8:	24a574a0 	addiu	a1,a1,29856
9d0076cc:	1000ffd4 	b	9d007620 <__fmt_fp+0x110>
9d0076d0:	24a574a4 	addiu	a1,a1,29860
9d0076d4:	8fa30018 	lw	v1,24(sp)
9d0076d8:	00003025 	move	a2,zero
9d0076dc:	00003825 	move	a3,zero
9d0076e0:	00602025 	move	a0,v1
9d0076e4:	0f4027b1 	jal	9d009ec4 <__eqdf2>
9d0076e8:	02602825 	move	a1,s3
9d0076ec:	3c179d00 	lui	s7,0x9d00
9d0076f0:	3c039d00 	lui	v1,0x9d00
9d0076f4:	afa30030 	sw	v1,48(sp)
9d0076f8:	8ef574a8 	lw	s5,29864(s7)
9d0076fc:	8ef674ac 	lw	s6,29868(s7)
9d007700:	14400013 	bnez	v0,9d007750 <__fmt_fp+0x240>
9d007704:	0000a025 	move	s4,zero
9d007708:	0f402c3b 	jal	9d00b0ec <tolower>
9d00770c:	8fa40094 	lw	a0,148(sp)
9d007710:	7c021420 	seb	v0,v0
9d007714:	afa20028 	sw	v0,40(sp)
9d007718:	8fa30028 	lw	v1,40(sp)
9d00771c:	062001a5 	bltz	s1,9d007db4 <__fmt_fp+0x8a4>
9d007720:	24020067 	li	v0,103
9d007724:	14620057 	bne	v1,v0,9d007884 <__fmt_fp+0x374>
9d007728:	8fa90028 	lw	t1,40(sp)
9d00772c:	52200001 	beqzl	s1,9d007734 <__fmt_fp+0x224>
9d007730:	24110001 	li	s1,1
9d007734:	2a82fffc 	slti	v0,s4,-4
9d007738:	14400003 	bnez	v0,9d007748 <__fmt_fp+0x238>
9d00773c:	0291102a 	slt	v0,s4,s1
9d007740:	14400196 	bnez	v0,9d007d9c <__fmt_fp+0x88c>
9d007744:	00000000 	nop
9d007748:	1000005a 	b	9d0078b4 <__fmt_fp+0x3a4>
9d00774c:	24090065 	li	t1,101
9d007750:	3c029d00 	lui	v0,0x9d00
9d007754:	8c4a74b0 	lw	t2,29872(v0)
9d007758:	8c4b74b4 	lw	t3,29876(v0)
9d00775c:	01403025 	move	a2,t2
9d007760:	01603825 	move	a3,t3
9d007764:	02a02025 	move	a0,s5
9d007768:	02c02825 	move	a1,s6
9d00776c:	afaa0038 	sw	t2,56(sp)
9d007770:	0f4025d2 	jal	9d009748 <__muldf3>
9d007774:	afab003c 	sw	t3,60(sp)
9d007778:	8fa40018 	lw	a0,24(sp)
9d00777c:	02603825 	move	a3,s3
9d007780:	00602825 	move	a1,v1
9d007784:	00803025 	move	a2,a0
9d007788:	00402025 	move	a0,v0
9d00778c:	0040f025 	move	s8,v0
9d007790:	0f4027b1 	jal	9d009ec4 <__eqdf2>
9d007794:	afa30028 	sw	v1,40(sp)
9d007798:	1c40002d 	bgtz	v0,9d007850 <__fmt_fp+0x340>
9d00779c:	8fa30028 	lw	v1,40(sp)
9d0077a0:	8faa0038 	lw	t2,56(sp)
9d0077a4:	8fab003c 	lw	t3,60(sp)
9d0077a8:	26940001 	addiu	s4,s4,1
9d0077ac:	03c0a825 	move	s5,s8
9d0077b0:	1000ffea 	b	9d00775c <__fmt_fp+0x24c>
9d0077b4:	0060b025 	move	s6,v1
9d0077b8:	10400013 	beqz	v0,9d007808 <__fmt_fp+0x2f8>
9d0077bc:	8fa20028 	lw	v0,40(sp)
9d0077c0:	14400011 	bnez	v0,9d007808 <__fmt_fp+0x2f8>
9d0077c4:	8fa30018 	lw	v1,24(sp)
9d0077c8:	8fa60038 	lw	a2,56(sp)
9d0077cc:	02602825 	move	a1,s3
9d0077d0:	03c03825 	move	a3,s8
9d0077d4:	0f4025d2 	jal	9d009748 <__muldf3>
9d0077d8:	00602025 	move	a0,v1
9d0077dc:	8fa60048 	lw	a2,72(sp)
9d0077e0:	8fa70050 	lw	a3,80(sp)
9d0077e4:	02a02025 	move	a0,s5
9d0077e8:	02c02825 	move	a1,s6
9d0077ec:	afa20018 	sw	v0,24(sp)
9d0077f0:	0f4025d2 	jal	9d009748 <__muldf3>
9d0077f4:	00609825 	move	s3,v1
9d0077f8:	0040a825 	move	s5,v0
9d0077fc:	24020001 	li	v0,1
9d007800:	0060b025 	move	s6,v1
9d007804:	afa20028 	sw	v0,40(sp)
9d007808:	8fa60040 	lw	a2,64(sp)
9d00780c:	8fa70044 	lw	a3,68(sp)
9d007810:	02a02025 	move	a0,s5
9d007814:	0f4022b4 	jal	9d008ad0 <__divdf3>
9d007818:	02c02825 	move	a1,s6
9d00781c:	0040a825 	move	s5,v0
9d007820:	0060b025 	move	s6,v1
9d007824:	2694ffff 	addiu	s4,s4,-1
9d007828:	8fa30018 	lw	v1,24(sp)
9d00782c:	02a03025 	move	a2,s5
9d007830:	02c03825 	move	a3,s6
9d007834:	00602025 	move	a0,v1
9d007838:	0f4027fc 	jal	9d009ff0 <dpcmplt>
9d00783c:	02602825 	move	a1,s3
9d007840:	0442ffdd 	bltzl	v0,9d0077b8 <__fmt_fp+0x2a8>
9d007844:	2a82fed4 	slti	v0,s4,-300
9d007848:	1000ffaf 	b	9d007708 <__fmt_fp+0x1f8>
9d00784c:	00000000 	nop
9d007850:	3c029d00 	lui	v0,0x9d00
9d007854:	8c4374b8 	lw	v1,29880(v0)
9d007858:	8c5e74bc 	lw	s8,29884(v0)
9d00785c:	8fa20030 	lw	v0,48(sp)
9d007860:	afa30038 	sw	v1,56(sp)
9d007864:	afa30048 	sw	v1,72(sp)
9d007868:	8c4374b4 	lw	v1,29876(v0)
9d00786c:	8c4274b0 	lw	v0,29872(v0)
9d007870:	afa00028 	sw	zero,40(sp)
9d007874:	afbe0050 	sw	s8,80(sp)
9d007878:	afa20040 	sw	v0,64(sp)
9d00787c:	1000ffea 	b	9d007828 <__fmt_fp+0x318>
9d007880:	afa30044 	sw	v1,68(sp)
9d007884:	24020066 	li	v0,102
9d007888:	1522000a 	bne	t1,v0,9d0078b4 <__fmt_fp+0x3a4>
9d00788c:	26310001 	addiu	s1,s1,1
9d007890:	06810004 	bgez	s4,9d0078a4 <__fmt_fp+0x394>
9d007894:	8fa30028 	lw	v1,40(sp)
9d007898:	8ef574a8 	lw	s5,29864(s7)
9d00789c:	8ef674ac 	lw	s6,29868(s7)
9d0078a0:	0000a025 	move	s4,zero
9d0078a4:	24020067 	li	v0,103
9d0078a8:	10620002 	beq	v1,v0,9d0078b4 <__fmt_fp+0x3a4>
9d0078ac:	24090066 	li	t1,102
9d0078b0:	02348821 	addu	s1,s1,s4
9d0078b4:	8fac0018 	lw	t4,24(sp)
9d0078b8:	02a05825 	move	t3,s5
9d0078bc:	02c05025 	move	t2,s6
9d0078c0:	0260b825 	move	s7,s3
9d0078c4:	00007025 	move	t6,zero
9d0078c8:	01603025 	move	a2,t3
9d0078cc:	01403825 	move	a3,t2
9d0078d0:	01802025 	move	a0,t4
9d0078d4:	02e02825 	move	a1,s7
9d0078d8:	afa9005c 	sw	t1,92(sp)
9d0078dc:	afae0058 	sw	t6,88(sp)
9d0078e0:	afab0050 	sw	t3,80(sp)
9d0078e4:	afaa0054 	sw	t2,84(sp)
9d0078e8:	0f4022b4 	jal	9d008ad0 <__divdf3>
9d0078ec:	afac0048 	sw	t4,72(sp)
9d0078f0:	00402025 	move	a0,v0
9d0078f4:	0f402847 	jal	9d00a11c <dpfloor>
9d0078f8:	00602825 	move	a1,v1
9d0078fc:	00602825 	move	a1,v1
9d007900:	00402025 	move	a0,v0
9d007904:	afa30044 	sw	v1,68(sp)
9d007908:	0f402a0a 	jal	9d00a828 <__fixdfsi>
9d00790c:	afa20040 	sw	v0,64(sp)
9d007910:	8fac0040 	lw	t4,64(sp)
9d007914:	8faf0048 	lw	t7,72(sp)
9d007918:	8faa0054 	lw	t2,84(sp)
9d00791c:	8fab0050 	lw	t3,80(sp)
9d007920:	8fad0044 	lw	t5,68(sp)
9d007924:	02e0f025 	move	s8,s7
9d007928:	3c178000 	lui	s7,0x8000
9d00792c:	02fe2026 	xor	a0,s7,s8
9d007930:	01603025 	move	a2,t3
9d007934:	01403825 	move	a3,t2
9d007938:	01a02825 	move	a1,t5
9d00793c:	afaf0010 	sw	t7,16(sp)
9d007940:	afa40014 	sw	a0,20(sp)
9d007944:	01802025 	move	a0,t4
9d007948:	afaa0048 	sw	t2,72(sp)
9d00794c:	0f401f71 	jal	9d007dc4 <fma>
9d007950:	afa20038 	sw	v0,56(sp)
9d007954:	afa20040 	sw	v0,64(sp)
9d007958:	0040f025 	move	s8,v0
9d00795c:	8fa20030 	lw	v0,48(sp)
9d007960:	8fab0050 	lw	t3,80(sp)
9d007964:	8faa0048 	lw	t2,72(sp)
9d007968:	8c4674b0 	lw	a2,29872(v0)
9d00796c:	8c4774b4 	lw	a3,29876(v0)
9d007970:	01602025 	move	a0,t3
9d007974:	01402825 	move	a1,t2
9d007978:	0f4022b4 	jal	9d008ad0 <__divdf3>
9d00797c:	02e3b826 	xor	s7,s7,v1
9d007980:	8fae0058 	lw	t6,88(sp)
9d007984:	00405825 	move	t3,v0
9d007988:	00605025 	move	t2,v1
9d00798c:	25ce0001 	addiu	t6,t6,1
9d007990:	8fac0040 	lw	t4,64(sp)
9d007994:	162effcc 	bne	s1,t6,9d0078c8 <__fmt_fp+0x3b8>
9d007998:	8fa9005c 	lw	t1,92(sp)
9d00799c:	3c029d00 	lui	v0,0x9d00
9d0079a0:	8c4674c0 	lw	a2,29888(v0)
9d0079a4:	8c4774c4 	lw	a3,29892(v0)
9d0079a8:	01602025 	move	a0,t3
9d0079ac:	00602825 	move	a1,v1
9d0079b0:	0f4025d2 	jal	9d009748 <__muldf3>
9d0079b4:	afa90048 	sw	t1,72(sp)
9d0079b8:	00403025 	move	a2,v0
9d0079bc:	00603825 	move	a3,v1
9d0079c0:	03c02025 	move	a0,s8
9d0079c4:	02e02825 	move	a1,s7
9d0079c8:	afa20040 	sw	v0,64(sp)
9d0079cc:	0f4027fc 	jal	9d009ff0 <dpcmplt>
9d0079d0:	afa30044 	sw	v1,68(sp)
9d0079d4:	04400010 	bltz	v0,9d007a18 <__fmt_fp+0x508>
9d0079d8:	8fa90048 	lw	t1,72(sp)
9d0079dc:	8faa0040 	lw	t2,64(sp)
9d0079e0:	8fab0044 	lw	t3,68(sp)
9d0079e4:	03c02025 	move	a0,s8
9d0079e8:	01403025 	move	a2,t2
9d0079ec:	01603825 	move	a3,t3
9d0079f0:	0f4027b1 	jal	9d009ec4 <__eqdf2>
9d0079f4:	02e02825 	move	a1,s7
9d0079f8:	8faa0040 	lw	t2,64(sp)
9d0079fc:	8fab0044 	lw	t3,68(sp)
9d007a00:	14400007 	bnez	v0,9d007a20 <__fmt_fp+0x510>
9d007a04:	8fa90048 	lw	t1,72(sp)
9d007a08:	8fa20038 	lw	v0,56(sp)
9d007a0c:	30420001 	andi	v0,v0,0x1
9d007a10:	14400004 	bnez	v0,9d007a24 <__fmt_fp+0x514>
9d007a14:	8fa30018 	lw	v1,24(sp)
9d007a18:	00005025 	move	t2,zero
9d007a1c:	00005825 	move	t3,zero
9d007a20:	8fa30018 	lw	v1,24(sp)
9d007a24:	01403025 	move	a2,t2
9d007a28:	01603825 	move	a3,t3
9d007a2c:	02602825 	move	a1,s3
9d007a30:	00602025 	move	a0,v1
9d007a34:	0f4023e4 	jal	9d008f90 <__adddf3>
9d007a38:	afa90048 	sw	t1,72(sp)
9d007a3c:	0040f025 	move	s8,v0
9d007a40:	afa20018 	sw	v0,24(sp)
9d007a44:	8fa20030 	lw	v0,48(sp)
9d007a48:	02a02025 	move	a0,s5
9d007a4c:	02c02825 	move	a1,s6
9d007a50:	8c4674b0 	lw	a2,29872(v0)
9d007a54:	8c4774b4 	lw	a3,29876(v0)
9d007a58:	0060b825 	move	s7,v1
9d007a5c:	0f4025d2 	jal	9d009748 <__muldf3>
9d007a60:	afa30038 	sw	v1,56(sp)
9d007a64:	00402025 	move	a0,v0
9d007a68:	03c03025 	move	a2,s8
9d007a6c:	02e03825 	move	a3,s7
9d007a70:	00602825 	move	a1,v1
9d007a74:	00409825 	move	s3,v0
9d007a78:	0f4027fc 	jal	9d009ff0 <dpcmplt>
9d007a7c:	afa30040 	sw	v1,64(sp)
9d007a80:	1c400054 	bgtz	v0,9d007bd4 <__fmt_fp+0x6c4>
9d007a84:	8fa90048 	lw	t1,72(sp)
9d007a88:	24020066 	li	v0,102
9d007a8c:	26940001 	addiu	s4,s4,1
9d007a90:	15220052 	bne	t1,v0,9d007bdc <__fmt_fp+0x6cc>
9d007a94:	8fab0040 	lw	t3,64(sp)
9d007a98:	26310001 	addiu	s1,s1,1
9d007a9c:	0280b025 	move	s6,s4
9d007aa0:	8fb50024 	lw	s5,36(sp)
9d007aa4:	02d11023 	subu	v0,s6,s1
9d007aa8:	afa20040 	sw	v0,64(sp)
9d007aac:	0000f025 	move	s8,zero
9d007ab0:	00008825 	move	s1,zero
9d007ab4:	8fa20040 	lw	v0,64(sp)
9d007ab8:	10560007 	beq	v0,s6,9d007ad8 <__fmt_fp+0x5c8>
9d007abc:	02a0b825 	move	s7,s5
9d007ac0:	8fa2008c 	lw	v0,140(sp)
9d007ac4:	8c420010 	lw	v0,16(v0)
9d007ac8:	2442fffb 	addiu	v0,v0,-5
9d007acc:	02a2102b 	sltu	v0,s5,v0
9d007ad0:	14400047 	bnez	v0,9d007bf0 <__fmt_fp+0x6e0>
9d007ad4:	8fa30018 	lw	v1,24(sp)
9d007ad8:	16200007 	bnez	s1,9d007af8 <__fmt_fp+0x5e8>
9d007adc:	8fa2001c 	lw	v0,28(sp)
9d007ae0:	30420010 	andi	v0,v0,0x10
9d007ae4:	10400004 	beqz	v0,9d007af8 <__fmt_fp+0x5e8>
9d007ae8:	0217b821 	addu	s7,s0,s7
9d007aec:	2402002e 	li	v0,46
9d007af0:	26b50001 	addiu	s5,s5,1
9d007af4:	a2e20000 	sb	v0,0(s7)
9d007af8:	02152021 	addu	a0,s0,s5
9d007afc:	24020065 	li	v0,101
9d007b00:	15220022 	bne	t1,v0,9d007b8c <__fmt_fp+0x67c>
9d007b04:	a0800000 	sb	zero,0(a0)
9d007b08:	06810003 	bgez	s4,9d007b18 <__fmt_fp+0x608>
9d007b0c:	00001825 	move	v1,zero
9d007b10:	0014a023 	negu	s4,s4
9d007b14:	24030001 	li	v1,1
9d007b18:	8fa20034 	lw	v0,52(sp)
9d007b1c:	264afffe 	addiu	t2,s2,-2
9d007b20:	2407000a 	li	a3,10
9d007b24:	2442ffff 	addiu	v0,v0,-1
9d007b28:	02022821 	addu	a1,s0,v0
9d007b2c:	a0a00000 	sb	zero,0(a1)
9d007b30:	24050002 	li	a1,2
9d007b34:	16800088 	bnez	s4,9d007d58 <__fmt_fp+0x848>
9d007b38:	01459021 	addu	s2,t2,a1
9d007b3c:	1ca00086 	bgtz	a1,9d007d58 <__fmt_fp+0x848>
9d007b40:	2406002d 	li	a2,45
9d007b44:	2405002b 	li	a1,43
9d007b48:	00c3280b 	movn	a1,a2,v1
9d007b4c:	00a01825 	move	v1,a1
9d007b50:	02022821 	addu	a1,s0,v0
9d007b54:	a0a3ffff 	sb	v1,-1(a1)
9d007b58:	8fa30094 	lw	v1,148(sp)
9d007b5c:	24050045 	li	a1,69
9d007b60:	2442fffe 	addiu	v0,v0,-2
9d007b64:	2463ffbf 	addiu	v1,v1,-65
9d007b68:	2c63001a 	sltiu	v1,v1,26
9d007b6c:	00a3480b 	movn	t1,a1,v1
9d007b70:	02a2a82a 	slt	s5,s5,v0
9d007b74:	02022821 	addu	a1,s0,v0
9d007b78:	a0a90000 	sb	t1,0(a1)
9d007b7c:	12a00003 	beqz	s5,9d007b8c <__fmt_fp+0x67c>
9d007b80:	2652fffe 	addiu	s2,s2,-2
9d007b84:	0f402c1f 	jal	9d00b07c <strcpy>
9d007b88:	00000000 	nop
9d007b8c:	8fa2001c 	lw	v0,28(sp)
9d007b90:	24030002 	li	v1,2
9d007b94:	30420003 	andi	v0,v0,0x3
9d007b98:	1443fea3 	bne	v0,v1,9d007628 <__fmt_fp+0x118>
9d007b9c:	00000000 	nop
9d007ba0:	1a40fea1 	blez	s2,9d007628 <__fmt_fp+0x118>
9d007ba4:	00000000 	nop
9d007ba8:	0f402bdf 	jal	9d00af7c <strlen>
9d007bac:	02002025 	move	a0,s0
9d007bb0:	8fa30024 	lw	v1,36(sp)
9d007bb4:	0043182a 	slt	v1,v0,v1
9d007bb8:	10600071 	beqz	v1,9d007d80 <__fmt_fp+0x870>
9d007bbc:	02403025 	move	a2,s2
9d007bc0:	8fa4002c 	lw	a0,44(sp)
9d007bc4:	0f402c15 	jal	9d00b054 <memset>
9d007bc8:	24050030 	li	a1,48
9d007bcc:	1000fe96 	b	9d007628 <__fmt_fp+0x118>
9d007bd0:	afa00020 	sw	zero,32(sp)
9d007bd4:	02a09825 	move	s3,s5
9d007bd8:	02c05825 	move	t3,s6
9d007bdc:	39360065 	xori	s6,t1,0x65
9d007be0:	02801025 	move	v0,s4
9d007be4:	0016100a 	movz	v0,zero,s6
9d007be8:	1000ffad 	b	9d007aa0 <__fmt_fp+0x590>
9d007bec:	0040b025 	move	s6,v0
9d007bf0:	8fa20038 	lw	v0,56(sp)
9d007bf4:	01603825 	move	a3,t3
9d007bf8:	02603025 	move	a2,s3
9d007bfc:	00602025 	move	a0,v1
9d007c00:	00402825 	move	a1,v0
9d007c04:	afa90054 	sw	t1,84(sp)
9d007c08:	0f4022b4 	jal	9d008ad0 <__divdf3>
9d007c0c:	afab0050 	sw	t3,80(sp)
9d007c10:	00402025 	move	a0,v0
9d007c14:	0f402847 	jal	9d00a11c <dpfloor>
9d007c18:	00602825 	move	a1,v1
9d007c1c:	00402025 	move	a0,v0
9d007c20:	00602825 	move	a1,v1
9d007c24:	afa3004c 	sw	v1,76(sp)
9d007c28:	0f402a0a 	jal	9d00a828 <__fixdfsi>
9d007c2c:	afa20048 	sw	v0,72(sp)
9d007c30:	2844000a 	slti	a0,v0,10
9d007c34:	24030009 	li	v1,9
9d007c38:	0064100a 	movz	v0,v1,a0
9d007c3c:	8fa3001c 	lw	v1,28(sp)
9d007c40:	8fae0048 	lw	t6,72(sp)
9d007c44:	8faf004c 	lw	t7,76(sp)
9d007c48:	30630010 	andi	v1,v1,0x10
9d007c4c:	00621825 	or	v1,v1,v0
9d007c50:	8fab0050 	lw	t3,80(sp)
9d007c54:	1460000c 	bnez	v1,9d007c88 <__fmt_fp+0x778>
9d007c58:	8fa90054 	lw	t1,84(sp)
9d007c5c:	8fa40028 	lw	a0,40(sp)
9d007c60:	24030067 	li	v1,103
9d007c64:	14830008 	bne	a0,v1,9d007c88 <__fmt_fp+0x778>
9d007c68:	00000000 	nop
9d007c6c:	06c0001d 	bltz	s6,9d007ce4 <__fmt_fp+0x7d4>
9d007c70:	27d70001 	addiu	s7,s8,1
9d007c74:	02a01825 	move	v1,s5
9d007c78:	02152021 	addu	a0,s0,s5
9d007c7c:	03c0b825 	move	s7,s8
9d007c80:	1000000e 	b	9d007cbc <__fmt_fp+0x7ac>
9d007c84:	24050030 	li	a1,48
9d007c88:	1620fffb 	bnez	s1,9d007c78 <__fmt_fp+0x768>
9d007c8c:	02a01825 	move	v1,s5
9d007c90:	06c3fffa 	bgezl	s6,9d007c7c <__fmt_fp+0x76c>
9d007c94:	02152021 	addu	a0,s0,s5
9d007c98:	0217b821 	addu	s7,s0,s7
9d007c9c:	2403002e 	li	v1,46
9d007ca0:	26b50001 	addiu	s5,s5,1
9d007ca4:	2652ffff 	addiu	s2,s2,-1
9d007ca8:	a2e30000 	sb	v1,0(s7)
9d007cac:	1000fff1 	b	9d007c74 <__fmt_fp+0x764>
9d007cb0:	24110001 	li	s1,1
9d007cb4:	26f7ffff 	addiu	s7,s7,-1
9d007cb8:	24840001 	addiu	a0,a0,1
9d007cbc:	56e0fffd 	bnezl	s7,9d007cb4 <__fmt_fp+0x7a4>
9d007cc0:	a0850000 	sb	a1,0(a0)
9d007cc4:	2652ffff 	addiu	s2,s2,-1
9d007cc8:	26b50001 	addiu	s5,s5,1
9d007ccc:	02031821 	addu	v1,s0,v1
9d007cd0:	025e9023 	subu	s2,s2,s8
9d007cd4:	02bea821 	addu	s5,s5,s8
9d007cd8:	24420030 	addiu	v0,v0,48
9d007cdc:	007ef021 	addu	s8,v1,s8
9d007ce0:	a3c20000 	sb	v0,0(s8)
9d007ce4:	8fa20038 	lw	v0,56(sp)
9d007ce8:	8fa50018 	lw	a1,24(sp)
9d007cec:	3c1e8000 	lui	s8,0x8000
9d007cf0:	03c22026 	xor	a0,s8,v0
9d007cf4:	02603025 	move	a2,s3
9d007cf8:	01603825 	move	a3,t3
9d007cfc:	afa50010 	sw	a1,16(sp)
9d007d00:	afa40014 	sw	a0,20(sp)
9d007d04:	01e02825 	move	a1,t7
9d007d08:	01c02025 	move	a0,t6
9d007d0c:	afa90050 	sw	t1,80(sp)
9d007d10:	0f401f71 	jal	9d007dc4 <fma>
9d007d14:	afab0048 	sw	t3,72(sp)
9d007d18:	afa20018 	sw	v0,24(sp)
9d007d1c:	03c31026 	xor	v0,s8,v1
9d007d20:	afa20038 	sw	v0,56(sp)
9d007d24:	8fa20030 	lw	v0,48(sp)
9d007d28:	8fab0048 	lw	t3,72(sp)
9d007d2c:	02602025 	move	a0,s3
9d007d30:	8c4674b0 	lw	a2,29872(v0)
9d007d34:	8c4774b4 	lw	a3,29876(v0)
9d007d38:	01602825 	move	a1,t3
9d007d3c:	0f4022b4 	jal	9d008ad0 <__divdf3>
9d007d40:	26d6ffff 	addiu	s6,s6,-1
9d007d44:	00409825 	move	s3,v0
9d007d48:	00605825 	move	t3,v1
9d007d4c:	02e0f025 	move	s8,s7
9d007d50:	1000ff58 	b	9d007ab4 <__fmt_fp+0x5a4>
9d007d54:	8fa90050 	lw	t1,80(sp)
9d007d58:	0287001a 	div	zero,s4,a3
9d007d5c:	00e001f4 	teq	a3,zero,0x7
9d007d60:	2442ffff 	addiu	v0,v0,-1
9d007d64:	02025821 	addu	t3,s0,v0
9d007d68:	24a5ffff 	addiu	a1,a1,-1
9d007d6c:	00003010 	mfhi	a2
9d007d70:	24c60030 	addiu	a2,a2,48
9d007d74:	a1660000 	sb	a2,0(t3)
9d007d78:	1000ff6e 	b	9d007b34 <__fmt_fp+0x624>
9d007d7c:	0000a012 	mflo	s4
9d007d80:	02021821 	addu	v1,s0,v0
9d007d84:	80640000 	lb	a0,0(v1)
9d007d88:	02421821 	addu	v1,s2,v0
9d007d8c:	02031821 	addu	v1,s0,v1
9d007d90:	a0640000 	sb	a0,0(v1)
9d007d94:	1000ff86 	b	9d007bb0 <__fmt_fp+0x6a0>
9d007d98:	2442ffff 	addiu	v0,v0,-1
9d007d9c:	0681fec1 	bgez	s4,9d0078a4 <__fmt_fp+0x394>
9d007da0:	8fa30028 	lw	v1,40(sp)
9d007da4:	1000feb7 	b	9d007884 <__fmt_fp+0x374>
9d007da8:	24090066 	li	t1,102
9d007dac:	1000fe61 	b	9d007734 <__fmt_fp+0x224>
9d007db0:	24110006 	li	s1,6
9d007db4:	1062fe5f 	beq	v1,v0,9d007734 <__fmt_fp+0x224>
9d007db8:	24110006 	li	s1,6
9d007dbc:	1000feb1 	b	9d007884 <__fmt_fp+0x374>
9d007dc0:	00604825 	move	t1,v1

Disassembly of section .text.fma:

9d007dc4 <fma>:
9d007dc4:	27bdff78 	addiu	sp,sp,-136
9d007dc8:	afa40088 	sw	a0,136(sp)
9d007dcc:	afa60090 	sw	a2,144(sp)
9d007dd0:	afa70094 	sw	a3,148(sp)
9d007dd4:	00803025 	move	a2,a0
9d007dd8:	00a03825 	move	a3,a1
9d007ddc:	27a40030 	addiu	a0,sp,48
9d007de0:	afbf0084 	sw	ra,132(sp)
9d007de4:	afa5008c 	sw	a1,140(sp)
9d007de8:	afbe0080 	sw	s8,128(sp)
9d007dec:	afb3006c 	sw	s3,108(sp)
9d007df0:	afb20068 	sw	s2,104(sp)
9d007df4:	8fb3009c 	lw	s3,156(sp)
9d007df8:	8fb20098 	lw	s2,152(sp)
9d007dfc:	afb7007c 	sw	s7,124(sp)
9d007e00:	afb60078 	sw	s6,120(sp)
9d007e04:	afb50074 	sw	s5,116(sp)
9d007e08:	afb40070 	sw	s4,112(sp)
9d007e0c:	afb10064 	sw	s1,100(sp)
9d007e10:	0f4029e0 	jal	9d00a780 <normalize>
9d007e14:	afb00060 	sw	s0,96(sp)
9d007e18:	8fa60090 	lw	a2,144(sp)
9d007e1c:	8fa70094 	lw	a3,148(sp)
9d007e20:	0f4029e0 	jal	9d00a780 <normalize>
9d007e24:	27a40020 	addiu	a0,sp,32
9d007e28:	02403025 	move	a2,s2
9d007e2c:	02603825 	move	a3,s3
9d007e30:	0f4029e0 	jal	9d00a780 <normalize>
9d007e34:	27a40010 	addiu	a0,sp,16
9d007e38:	8fbe0038 	lw	s8,56(sp)
9d007e3c:	2bc203cb 	slti	v0,s8,971
9d007e40:	10400006 	beqz	v0,9d007e5c <fma+0x98>
9d007e44:	8fa60090 	lw	a2,144(sp)
9d007e48:	8faf0028 	lw	t7,40(sp)
9d007e4c:	29e203cb 	slti	v0,t7,971
9d007e50:	1440000e 	bnez	v0,9d007e8c <fma+0xc8>
9d007e54:	8fa60018 	lw	a2,24(sp)
9d007e58:	8fa60090 	lw	a2,144(sp)
9d007e5c:	8fa70094 	lw	a3,148(sp)
9d007e60:	8fa40088 	lw	a0,136(sp)
9d007e64:	0f4025d2 	jal	9d009748 <__muldf3>
9d007e68:	8fa5008c 	lw	a1,140(sp)
9d007e6c:	00403025 	move	a2,v0
9d007e70:	00603825 	move	a3,v1
9d007e74:	02402025 	move	a0,s2
9d007e78:	0f4023e4 	jal	9d008f90 <__adddf3>
9d007e7c:	02602825 	move	a1,s3
9d007e80:	00409025 	move	s2,v0
9d007e84:	10000006 	b	9d007ea0 <fma+0xdc>
9d007e88:	00609825 	move	s3,v1
9d007e8c:	28c203cb 	slti	v0,a2,971
9d007e90:	14400011 	bnez	v0,9d007ed8 <fma+0x114>
9d007e94:	240203cb 	li	v0,971
9d007e98:	14c2fff0 	bne	a2,v0,9d007e5c <fma+0x98>
9d007e9c:	8fa60090 	lw	a2,144(sp)
9d007ea0:	8fbf0084 	lw	ra,132(sp)
9d007ea4:	02401025 	move	v0,s2
9d007ea8:	02601825 	move	v1,s3
9d007eac:	8fbe0080 	lw	s8,128(sp)
9d007eb0:	8fb7007c 	lw	s7,124(sp)
9d007eb4:	8fb60078 	lw	s6,120(sp)
9d007eb8:	8fb50074 	lw	s5,116(sp)
9d007ebc:	8fb40070 	lw	s4,112(sp)
9d007ec0:	8fb3006c 	lw	s3,108(sp)
9d007ec4:	8fb20068 	lw	s2,104(sp)
9d007ec8:	8fb10064 	lw	s1,100(sp)
9d007ecc:	8fb00060 	lw	s0,96(sp)
9d007ed0:	03e00008 	jr	ra
9d007ed4:	27bd0088 	addiu	sp,sp,136
9d007ed8:	8fa20030 	lw	v0,48(sp)
9d007edc:	8fac0020 	lw	t4,32(sp)
9d007ee0:	8fa40024 	lw	a0,36(sp)
9d007ee4:	8fb80034 	lw	t8,52(sp)
9d007ee8:	004c0019 	multu	v0,t4
9d007eec:	03cff021 	addu	s8,s8,t7
9d007ef0:	00de8823 	subu	s1,a2,s8
9d007ef4:	00004810 	mfhi	t1
9d007ef8:	afa90044 	sw	t1,68(sp)
9d007efc:	00004012 	mflo	t0
9d007f00:	afa80040 	sw	t0,64(sp)
9d007f04:	8fa90040 	lw	t1,64(sp)
9d007f08:	00440019 	multu	v0,a0
9d007f0c:	00001012 	mflo	v0
9d007f10:	00001810 	mfhi	v1
9d007f14:	030c0019 	multu	t8,t4
9d007f18:	00006012 	mflo	t4
9d007f1c:	004c7021 	addu	t6,v0,t4
9d007f20:	01c2282b 	sltu	a1,t6,v0
9d007f24:	00006810 	mfhi	t5
9d007f28:	8fa20044 	lw	v0,68(sp)
9d007f2c:	006d6821 	addu	t5,v1,t5
9d007f30:	03040019 	multu	t8,a0
9d007f34:	8fa30044 	lw	v1,68(sp)
9d007f38:	01c27021 	addu	t6,t6,v0
9d007f3c:	00ad2821 	addu	a1,a1,t5
9d007f40:	01c3202b 	sltu	a0,t6,v1
9d007f44:	0000c012 	mflo	t8
9d007f48:	03052821 	addu	a1,t8,a1
9d007f4c:	00b8102b 	sltu	v0,a1,t8
9d007f50:	00a42021 	addu	a0,a1,a0
9d007f54:	0000c810 	mfhi	t9
9d007f58:	00591021 	addu	v0,v0,t9
9d007f5c:	0085282b 	sltu	a1,a0,a1
9d007f60:	00808025 	move	s0,a0
9d007f64:	1a2000ad 	blez	s1,9d00821c <fma+0x458>
9d007f68:	00a2b021 	addu	s6,a1,v0
9d007f6c:	2a220040 	slti	v0,s1,64
9d007f70:	8faf0010 	lw	t7,16(sp)
9d007f74:	10400079 	beqz	v0,9d00815c <fma+0x398>
9d007f78:	8fb70014 	lw	s7,20(sp)
9d007f7c:	01e02025 	move	a0,t7
9d007f80:	02e02825 	move	a1,s7
9d007f84:	02203025 	move	a2,s1
9d007f88:	afae0054 	sw	t6,84(sp)
9d007f8c:	afa90050 	sw	t1,80(sp)
9d007f90:	0f402bd0 	jal	9d00af40 <__ashldi3>
9d007f94:	afaf004c 	sw	t7,76(sp)
9d007f98:	8faf004c 	lw	t7,76(sp)
9d007f9c:	24060040 	li	a2,64
9d007fa0:	02e02825 	move	a1,s7
9d007fa4:	01e02025 	move	a0,t7
9d007fa8:	00d13023 	subu	a2,a2,s1
9d007fac:	afa20048 	sw	v0,72(sp)
9d007fb0:	0f402bc1 	jal	9d00af04 <__lshrdi3>
9d007fb4:	afa30040 	sw	v1,64(sp)
9d007fb8:	8fb80040 	lw	t8,64(sp)
9d007fbc:	8fa70048 	lw	a3,72(sp)
9d007fc0:	8fa90050 	lw	t1,80(sp)
9d007fc4:	8fae0054 	lw	t6,84(sp)
9d007fc8:	00407825 	move	t7,v0
9d007fcc:	0060b825 	move	s7,v1
9d007fd0:	8fa2002c 	lw	v0,44(sp)
9d007fd4:	8fb1003c 	lw	s1,60(sp)
9d007fd8:	02228826 	xor	s1,s1,v0
9d007fdc:	8fa2001c 	lw	v0,28(sp)
9d007fe0:	145100b9 	bne	v0,s1,9d0082c8 <fma+0x504>
9d007fe4:	00e95021 	addu	t2,a3,t1
9d007fe8:	0147902b 	sltu	s2,t2,a3
9d007fec:	030e7021 	addu	t6,t8,t6
9d007ff0:	024ea021 	addu	s4,s2,t6
9d007ff4:	0298102b 	sltu	v0,s4,t8
9d007ff8:	0140a825 	move	s5,t2
9d007ffc:	14400006 	bnez	v0,9d008018 <fma+0x254>
9d008000:	24060001 	li	a2,1
9d008004:	17140003 	bne	t8,s4,9d008014 <fma+0x250>
9d008008:	0147382b 	sltu	a3,t2,a3
9d00800c:	14e00003 	bnez	a3,9d00801c <fma+0x258>
9d008010:	01f05821 	addu	t3,t7,s0
9d008014:	00003025 	move	a2,zero
9d008018:	01f05821 	addu	t3,t7,s0
9d00801c:	016f782b 	sltu	t7,t3,t7
9d008020:	02f61021 	addu	v0,s7,s6
9d008024:	00cb5821 	addu	t3,a2,t3
9d008028:	01e21021 	addu	v0,t7,v0
9d00802c:	0166302b 	sltu	a2,t3,a2
9d008030:	00c2c821 	addu	t9,a2,v0
9d008034:	01602025 	move	a0,t3
9d008038:	03202825 	move	a1,t9
9d00803c:	afab0048 	sw	t3,72(sp)
9d008040:	0f402ae9 	jal	9d00aba4 <a_clz_64>
9d008044:	afb90040 	sw	t9,64(sp)
9d008048:	2453ffff 	addiu	s3,v0,-1
9d00804c:	24060040 	li	a2,64
9d008050:	00d33023 	subu	a2,a2,s3
9d008054:	02a02025 	move	a0,s5
9d008058:	0f402bc1 	jal	9d00af04 <__lshrdi3>
9d00805c:	02802825 	move	a1,s4
9d008060:	8fab0048 	lw	t3,72(sp)
9d008064:	8fb90040 	lw	t9,64(sp)
9d008068:	02603025 	move	a2,s3
9d00806c:	01602025 	move	a0,t3
9d008070:	03202825 	move	a1,t9
9d008074:	00408025 	move	s0,v0
9d008078:	0f402bd0 	jal	9d00af40 <__ashldi3>
9d00807c:	00609025 	move	s2,v1
9d008080:	02603025 	move	a2,s3
9d008084:	02a02025 	move	a0,s5
9d008088:	02802825 	move	a1,s4
9d00808c:	02028025 	or	s0,s0,v0
9d008090:	0f402bd0 	jal	9d00af40 <__ashldi3>
9d008094:	02439025 	or	s2,s2,v1
9d008098:	00431025 	or	v0,v0,v1
9d00809c:	0002102b 	sltu	v0,zero,v0
9d0080a0:	27de0040 	addiu	s8,s8,64
9d0080a4:	02028025 	or	s0,s0,v0
9d0080a8:	02002025 	move	a0,s0
9d0080ac:	12200005 	beqz	s1,9d0080c4 <fma+0x300>
9d0080b0:	02402825 	move	a1,s2
9d0080b4:	00102023 	negu	a0,s0
9d0080b8:	0004102b 	sltu	v0,zero,a0
9d0080bc:	00122823 	negu	a1,s2
9d0080c0:	00a22823 	subu	a1,a1,v0
9d0080c4:	0f402acc 	jal	9d00ab30 <__floatdidf>
9d0080c8:	03d3f023 	subu	s8,s8,s3
9d0080cc:	0040b025 	move	s6,v0
9d0080d0:	2bc2fbc4 	slti	v0,s8,-1084
9d0080d4:	104000fc 	beqz	v0,9d0084c8 <fma+0x704>
9d0080d8:	0060b825 	move	s7,v1
9d0080dc:	2402fbc3 	li	v0,-1085
9d0080e0:	17c200ff 	bne	s8,v0,9d0084e0 <fma+0x71c>
9d0080e4:	00102580 	sll	a0,s0,0x16
9d0080e8:	122000b8 	beqz	s1,9d0083cc <fma+0x608>
9d0080ec:	3c029d00 	lui	v0,0x9d00
9d0080f0:	8c5474e0 	lw	s4,29920(v0)
9d0080f4:	8c5574e4 	lw	s5,29924(v0)
9d0080f8:	02c03025 	move	a2,s6
9d0080fc:	02e03825 	move	a3,s7
9d008100:	02802025 	move	a0,s4
9d008104:	0f4027b1 	jal	9d009ec4 <__eqdf2>
9d008108:	02a02825 	move	a1,s5
9d00810c:	144000b3 	bnez	v0,9d0083dc <fma+0x618>
9d008110:	3c029d00 	lui	v0,0x9d00
9d008114:	8c4674e8 	lw	a2,29928(v0)
9d008118:	8c4774ec 	lw	a3,29932(v0)
9d00811c:	02c02025 	move	a0,s6
9d008120:	0f4025d2 	jal	9d009748 <__muldf3>
9d008124:	02e02825 	move	a1,s7
9d008128:	00602825 	move	a1,v1
9d00812c:	0f4028c9 	jal	9d00a324 <__truncdfsf2>
9d008130:	00402025 	move	a0,v0
9d008134:	0f4029b5 	jal	9d00a6d4 <__extendsfdf2>
9d008138:	00402025 	move	a0,v0
9d00813c:	3c049d00 	lui	a0,0x9d00
9d008140:	8c8674f0 	lw	a2,29936(a0)
9d008144:	8c8774f4 	lw	a3,29940(a0)
9d008148:	00602825 	move	a1,v1
9d00814c:	0f4025d2 	jal	9d009748 <__muldf3>
9d008150:	00402025 	move	a0,v0
9d008154:	1000ff4b 	b	9d007e84 <fma+0xc0>
9d008158:	00409025 	move	s2,v0
9d00815c:	2631ffc0 	addiu	s1,s1,-64
9d008160:	24deffc0 	addiu	s8,a2,-64
9d008164:	00003825 	move	a3,zero
9d008168:	1220ff99 	beqz	s1,9d007fd0 <fma+0x20c>
9d00816c:	0000c025 	move	t8,zero
9d008170:	2a220040 	slti	v0,s1,64
9d008174:	1040004c 	beqz	v0,9d0082a8 <fma+0x4e4>
9d008178:	8fa40040 	lw	a0,64(sp)
9d00817c:	240b0040 	li	t3,64
9d008180:	01715823 	subu	t3,t3,s1
9d008184:	01603025 	move	a2,t3
9d008188:	01c02825 	move	a1,t6
9d00818c:	afb80058 	sw	t8,88(sp)
9d008190:	afa70054 	sw	a3,84(sp)
9d008194:	afaf0050 	sw	t7,80(sp)
9d008198:	afab004c 	sw	t3,76(sp)
9d00819c:	0f402bd0 	jal	9d00af40 <__ashldi3>
9d0081a0:	afae0048 	sw	t6,72(sp)
9d0081a4:	8fae0048 	lw	t6,72(sp)
9d0081a8:	8fa40040 	lw	a0,64(sp)
9d0081ac:	00431025 	or	v0,v0,v1
9d0081b0:	01c02825 	move	a1,t6
9d0081b4:	02203025 	move	a2,s1
9d0081b8:	0f402bc1 	jal	9d00af04 <__lshrdi3>
9d0081bc:	0002a82b 	sltu	s5,zero,v0
9d0081c0:	8fab004c 	lw	t3,76(sp)
9d0081c4:	02002025 	move	a0,s0
9d0081c8:	02c02825 	move	a1,s6
9d0081cc:	01603025 	move	a2,t3
9d0081d0:	0060a025 	move	s4,v1
9d0081d4:	0f402bd0 	jal	9d00af40 <__ashldi3>
9d0081d8:	02a2a825 	or	s5,s5,v0
9d0081dc:	02a24825 	or	t1,s5,v0
9d0081e0:	02837025 	or	t6,s4,v1
9d0081e4:	02002025 	move	a0,s0
9d0081e8:	02c02825 	move	a1,s6
9d0081ec:	02203025 	move	a2,s1
9d0081f0:	afa90048 	sw	t1,72(sp)
9d0081f4:	0f402bc1 	jal	9d00af04 <__lshrdi3>
9d0081f8:	afae0040 	sw	t6,64(sp)
9d0081fc:	00408025 	move	s0,v0
9d008200:	0060b025 	move	s6,v1
9d008204:	8fae0040 	lw	t6,64(sp)
9d008208:	8fa90048 	lw	t1,72(sp)
9d00820c:	8faf0050 	lw	t7,80(sp)
9d008210:	8fa70054 	lw	a3,84(sp)
9d008214:	1000ff6e 	b	9d007fd0 <fma+0x20c>
9d008218:	8fb80058 	lw	t8,88(sp)
9d00821c:	03c68823 	subu	s1,s8,a2
9d008220:	16200005 	bnez	s1,9d008238 <fma+0x474>
9d008224:	8fa70010 	lw	a3,16(sp)
9d008228:	8fb80014 	lw	t8,20(sp)
9d00822c:	00007825 	move	t7,zero
9d008230:	1000ff67 	b	9d007fd0 <fma+0x20c>
9d008234:	0000b825 	move	s7,zero
9d008238:	2a220040 	slti	v0,s1,64
9d00823c:	1040001f 	beqz	v0,9d0082bc <fma+0x4f8>
9d008240:	8faa0010 	lw	t2,16(sp)
9d008244:	8fab0014 	lw	t3,20(sp)
9d008248:	24060040 	li	a2,64
9d00824c:	01402025 	move	a0,t2
9d008250:	01602825 	move	a1,t3
9d008254:	00d13023 	subu	a2,a2,s1
9d008258:	afae004c 	sw	t6,76(sp)
9d00825c:	afa90048 	sw	t1,72(sp)
9d008260:	afaa0040 	sw	t2,64(sp)
9d008264:	0f402bd0 	jal	9d00af40 <__ashldi3>
9d008268:	afab0044 	sw	t3,68(sp)
9d00826c:	8faa0040 	lw	t2,64(sp)
9d008270:	8fab0044 	lw	t3,68(sp)
9d008274:	00431025 	or	v0,v0,v1
9d008278:	02203025 	move	a2,s1
9d00827c:	01402025 	move	a0,t2
9d008280:	01602825 	move	a1,t3
9d008284:	0f402bc1 	jal	9d00af04 <__lshrdi3>
9d008288:	0002a02b 	sltu	s4,zero,v0
9d00828c:	02823825 	or	a3,s4,v0
9d008290:	0060c025 	move	t8,v1
9d008294:	00007825 	move	t7,zero
9d008298:	0000b825 	move	s7,zero
9d00829c:	8fa90048 	lw	t1,72(sp)
9d0082a0:	1000ff4b 	b	9d007fd0 <fma+0x20c>
9d0082a4:	8fae004c 	lw	t6,76(sp)
9d0082a8:	24090001 	li	t1,1
9d0082ac:	00007025 	move	t6,zero
9d0082b0:	00008025 	move	s0,zero
9d0082b4:	1000ff46 	b	9d007fd0 <fma+0x20c>
9d0082b8:	0000b025 	move	s6,zero
9d0082bc:	24070001 	li	a3,1
9d0082c0:	1000ffda 	b	9d00822c <fma+0x468>
9d0082c4:	0000c025 	move	t8,zero
9d0082c8:	01275023 	subu	t2,t1,a3
9d0082cc:	012a182b 	sltu	v1,t1,t2
9d0082d0:	01d84023 	subu	t0,t6,t8
9d0082d4:	0103a023 	subu	s4,t0,v1
9d0082d8:	01d4102b 	sltu	v0,t6,s4
9d0082dc:	0140a825 	move	s5,t2
9d0082e0:	241f0001 	li	ra,1
9d0082e4:	14400006 	bnez	v0,9d008300 <fma+0x53c>
9d0082e8:	00003025 	move	a2,zero
9d0082ec:	568e0004 	bnel	s4,t6,9d008300 <fma+0x53c>
9d0082f0:	0000f825 	move	ra,zero
9d0082f4:	14600003 	bnez	v1,9d008304 <fma+0x540>
9d0082f8:	020f1823 	subu	v1,s0,t7
9d0082fc:	0000f825 	move	ra,zero
9d008300:	020f1823 	subu	v1,s0,t7
9d008304:	0203c82b 	sltu	t9,s0,v1
9d008308:	02d71023 	subu	v0,s6,s7
9d00830c:	00591023 	subu	v0,v0,t9
9d008310:	007f5823 	subu	t3,v1,ra
9d008314:	006b182b 	sltu	v1,v1,t3
9d008318:	00461023 	subu	v0,v0,a2
9d00831c:	0043c823 	subu	t9,v0,v1
9d008320:	07210013 	bgez	t9,9d008370 <fma+0x5ac>
9d008324:	00e95023 	subu	t2,a3,t1
9d008328:	00ea382b 	sltu	a3,a3,t2
9d00832c:	030e4023 	subu	t0,t8,t6
9d008330:	01f02023 	subu	a0,t7,s0
9d008334:	0107a023 	subu	s4,t0,a3
9d008338:	01e4782b 	sltu	t7,t7,a0
9d00833c:	02f61023 	subu	v0,s7,s6
9d008340:	01545825 	or	t3,t2,s4
9d008344:	009ff821 	addu	ra,a0,ra
9d008348:	004f1023 	subu	v0,v0,t7
9d00834c:	000b582b 	sltu	t3,zero,t3
9d008350:	03e4202b 	sltu	a0,ra,a0
9d008354:	00461021 	addu	v0,v0,a2
9d008358:	03eb5823 	subu	t3,ra,t3
9d00835c:	00821021 	addu	v0,a0,v0
9d008360:	03ebf82b 	sltu	ra,ra,t3
9d008364:	0140a825 	move	s5,t2
9d008368:	005fc823 	subu	t9,v0,ra
9d00836c:	2e310001 	sltiu	s1,s1,1
9d008370:	01791025 	or	v0,t3,t9
9d008374:	1440ff2f 	bnez	v0,9d008034 <fma+0x270>
9d008378:	02b41025 	or	v0,s5,s4
9d00837c:	1040feb6 	beqz	v0,9d007e58 <fma+0x94>
9d008380:	02a02025 	move	a0,s5
9d008384:	0f402ae9 	jal	9d00aba4 <a_clz_64>
9d008388:	02802825 	move	a1,s4
9d00838c:	2453ffff 	addiu	s3,v0,-1
9d008390:	06610007 	bgez	s3,9d0083b0 <fma+0x5ec>
9d008394:	001417c0 	sll	v0,s4,0x1f
9d008398:	00158042 	srl	s0,s5,0x1
9d00839c:	00508025 	or	s0,v0,s0
9d0083a0:	32aa0001 	andi	t2,s5,0x1
9d0083a4:	020a8025 	or	s0,s0,t2
9d0083a8:	1000ff3f 	b	9d0080a8 <fma+0x2e4>
9d0083ac:	00149042 	srl	s2,s4,0x1
9d0083b0:	02603025 	move	a2,s3
9d0083b4:	02a02025 	move	a0,s5
9d0083b8:	0f402bd0 	jal	9d00af40 <__ashldi3>
9d0083bc:	02802825 	move	a1,s4
9d0083c0:	00408025 	move	s0,v0
9d0083c4:	1000ff38 	b	9d0080a8 <fma+0x2e4>
9d0083c8:	00609025 	move	s2,v1
9d0083cc:	3c029d00 	lui	v0,0x9d00
9d0083d0:	8c5474d8 	lw	s4,29912(v0)
9d0083d4:	1000ff48 	b	9d0080f8 <fma+0x334>
9d0083d8:	8c5574dc 	lw	s5,29916(v0)
9d0083dc:	00101540 	sll	v0,s0,0x15
9d0083e0:	10400039 	beqz	v0,9d0084c8 <fma+0x704>
9d0083e4:	001217c0 	sll	v0,s2,0x1f
9d0083e8:	00102042 	srl	a0,s0,0x1
9d0083ec:	00442025 	or	a0,v0,a0
9d0083f0:	00122842 	srl	a1,s2,0x1
9d0083f4:	32100001 	andi	s0,s0,0x1
9d0083f8:	3c024000 	lui	v0,0x4000
9d0083fc:	00902025 	or	a0,a0,s0
9d008400:	12200005 	beqz	s1,9d008418 <fma+0x654>
9d008404:	00452825 	or	a1,v0,a1
9d008408:	00042023 	negu	a0,a0
9d00840c:	0004102b 	sltu	v0,zero,a0
9d008410:	00052823 	negu	a1,a1
9d008414:	00a22823 	subu	a1,a1,v0
9d008418:	0f402acc 	jal	9d00ab30 <__floatdidf>
9d00841c:	00000000 	nop
9d008420:	00403025 	move	a2,v0
9d008424:	00603825 	move	a3,v1
9d008428:	00402025 	move	a0,v0
9d00842c:	0f4023e4 	jal	9d008f90 <__adddf3>
9d008430:	00602825 	move	a1,v1
9d008434:	00402025 	move	a0,v0
9d008438:	02803025 	move	a2,s4
9d00843c:	02a03825 	move	a3,s5
9d008440:	0f4023e2 	jal	9d008f88 <__subdf3>
9d008444:	00602825 	move	a1,v1
9d008448:	00408025 	move	s0,v0
9d00844c:	3c029d00 	lui	v0,0x9d00
9d008450:	8c4674f0 	lw	a2,29936(v0)
9d008454:	8c4774f4 	lw	a3,29940(v0)
9d008458:	02002025 	move	a0,s0
9d00845c:	00602825 	move	a1,v1
9d008460:	0f4025d2 	jal	9d009748 <__muldf3>
9d008464:	00608825 	move	s1,v1
9d008468:	00403025 	move	a2,v0
9d00846c:	00603825 	move	a3,v1
9d008470:	00402025 	move	a0,v0
9d008474:	0f4025d2 	jal	9d009748 <__muldf3>
9d008478:	00602825 	move	a1,v1
9d00847c:	02003025 	move	a2,s0
9d008480:	02203825 	move	a3,s1
9d008484:	02002025 	move	a0,s0
9d008488:	02202825 	move	a1,s1
9d00848c:	00409025 	move	s2,v0
9d008490:	0f4023e2 	jal	9d008f88 <__subdf3>
9d008494:	00609825 	move	s3,v1
9d008498:	00403025 	move	a2,v0
9d00849c:	00603825 	move	a3,v1
9d0084a0:	02402025 	move	a0,s2
9d0084a4:	0f4025d2 	jal	9d009748 <__muldf3>
9d0084a8:	02602825 	move	a1,s3
9d0084ac:	00402025 	move	a0,v0
9d0084b0:	02003025 	move	a2,s0
9d0084b4:	02203825 	move	a3,s1
9d0084b8:	0f4023e4 	jal	9d008f90 <__adddf3>
9d0084bc:	00602825 	move	a1,v1
9d0084c0:	0040b025 	move	s6,v0
9d0084c4:	0060b825 	move	s7,v1
9d0084c8:	03c03025 	move	a2,s8
9d0084cc:	02c02025 	move	a0,s6
9d0084d0:	0f402909 	jal	9d00a424 <scalbn>
9d0084d4:	02e02825 	move	a1,s7
9d0084d8:	1000fe6a 	b	9d007e84 <fma+0xc0>
9d0084dc:	00409025 	move	s2,v0
9d0084e0:	00121580 	sll	v0,s2,0x16
9d0084e4:	00108282 	srl	s0,s0,0xa
9d0084e8:	00508025 	or	s0,v0,s0
9d0084ec:	0004202b 	sltu	a0,zero,a0
9d0084f0:	00902025 	or	a0,a0,s0
9d0084f4:	02402825 	move	a1,s2
9d0084f8:	00041582 	srl	v0,a0,0x16
9d0084fc:	7c054804 	ins	a1,zero,0x0,0xa
9d008500:	00452825 	or	a1,v0,a1
9d008504:	12200005 	beqz	s1,9d00851c <fma+0x758>
9d008508:	00042280 	sll	a0,a0,0xa
9d00850c:	00042023 	negu	a0,a0
9d008510:	0004102b 	sltu	v0,zero,a0
9d008514:	00052823 	negu	a1,a1
9d008518:	00a22823 	subu	a1,a1,v0
9d00851c:	0f402acc 	jal	9d00ab30 <__floatdidf>
9d008520:	00000000 	nop
9d008524:	1000ffe7 	b	9d0084c4 <fma+0x700>
9d008528:	0040b025 	move	s6,v0

Disassembly of section .text.__printf_core:

9d00852c <__printf_core>:
9d00852c:	27bdff18 	addiu	sp,sp,-232
9d008530:	afb400dc 	sw	s4,220(sp)
9d008534:	afb300d8 	sw	s3,216(sp)
9d008538:	afb200d4 	sw	s2,212(sp)
9d00853c:	afb100d0 	sw	s1,208(sp)
9d008540:	afbf00e4 	sw	ra,228(sp)
9d008544:	afb500e0 	sw	s5,224(sp)
9d008548:	afb000cc 	sw	s0,204(sp)
9d00854c:	00809025 	move	s2,a0
9d008550:	00c08825 	move	s1,a2
9d008554:	afa500b8 	sw	a1,184(sp)
9d008558:	00009825 	move	s3,zero
9d00855c:	3c149d00 	lui	s4,0x9d00
9d008560:	8fa500b8 	lw	a1,184(sp)
9d008564:	80a20000 	lb	v0,0(a1)
9d008568:	104000e4 	beqz	v0,9d0088fc <__printf_core+0x3d0>
9d00856c:	2402ffff 	li	v0,-1
9d008570:	afa2009c 	sw	v0,156(sp)
9d008574:	27a20018 	addiu	v0,sp,24
9d008578:	afa200a4 	sw	v0,164(sp)
9d00857c:	24020080 	li	v0,128
9d008580:	afa00098 	sw	zero,152(sp)
9d008584:	afa000a0 	sw	zero,160(sp)
9d008588:	afa200a8 	sw	v0,168(sp)
9d00858c:	00008025 	move	s0,zero
9d008590:	24030025 	li	v1,37
9d008594:	00b01021 	addu	v0,a1,s0
9d008598:	80420000 	lb	v0,0(v0)
9d00859c:	10400003 	beqz	v0,9d0085ac <__printf_core+0x80>
9d0085a0:	00000000 	nop
9d0085a4:	5443fffb 	bnel	v0,v1,9d008594 <__printf_core+0x68>
9d0085a8:	26100001 	addiu	s0,s0,1
9d0085ac:	12000006 	beqz	s0,9d0085c8 <__printf_core+0x9c>
9d0085b0:	02003025 	move	a2,s0
9d0085b4:	0f402b04 	jal	9d00ac10 <__out>
9d0085b8:	02402025 	move	a0,s2
9d0085bc:	8fa200b8 	lw	v0,184(sp)
9d0085c0:	00501021 	addu	v0,v0,s0
9d0085c4:	afa200b8 	sw	v0,184(sp)
9d0085c8:	8fb500b8 	lw	s5,184(sp)
9d0085cc:	24020025 	li	v0,37
9d0085d0:	82a30000 	lb	v1,0(s5)
9d0085d4:	146200c2 	bne	v1,v0,9d0088e0 <__printf_core+0x3b4>
9d0085d8:	26b50001 	addiu	s5,s5,1
9d0085dc:	afb500b8 	sw	s5,184(sp)
9d0085e0:	2405002b 	li	a1,43
9d0085e4:	2406002d 	li	a2,45
9d0085e8:	24030030 	li	v1,48
9d0085ec:	24070020 	li	a3,32
9d0085f0:	24080023 	li	t0,35
9d0085f4:	8fa400b8 	lw	a0,184(sp)
9d0085f8:	80820000 	lb	v0,0(a0)
9d0085fc:	5045001b 	beql	v0,a1,9d00866c <__printf_core+0x140>
9d008600:	8fa20098 	lw	v0,152(sp)
9d008604:	2849002c 	slti	t1,v0,44
9d008608:	1120001e 	beqz	t1,9d008684 <__printf_core+0x158>
9d00860c:	00000000 	nop
9d008610:	50470018 	beql	v0,a3,9d008674 <__printf_core+0x148>
9d008614:	8fa20098 	lw	v0,152(sp)
9d008618:	50480018 	beql	v0,t0,9d00867c <__printf_core+0x150>
9d00861c:	8fa20098 	lw	v0,152(sp)
9d008620:	2403002a 	li	v1,42
9d008624:	5043001e 	beql	v0,v1,9d0086a0 <__printf_core+0x174>
9d008628:	8e220000 	lw	v0,0(s1)
9d00862c:	0f402a8f 	jal	9d00aa3c <atoi>
9d008630:	00000000 	nop
9d008634:	afa200a0 	sw	v0,160(sp)
9d008638:	8fa300b8 	lw	v1,184(sp)
9d00863c:	80620000 	lb	v0,0(v1)
9d008640:	2442ffd0 	addiu	v0,v0,-48
9d008644:	2c42000a 	sltiu	v0,v0,10
9d008648:	10400021 	beqz	v0,9d0086d0 <__printf_core+0x1a4>
9d00864c:	24630001 	addiu	v1,v1,1
9d008650:	1000fff9 	b	9d008638 <__printf_core+0x10c>
9d008654:	afa300b8 	sw	v1,184(sp)
9d008658:	34420001 	ori	v0,v0,0x1
9d00865c:	24840001 	addiu	a0,a0,1
9d008660:	afa20098 	sw	v0,152(sp)
9d008664:	1000ffe3 	b	9d0085f4 <__printf_core+0xc8>
9d008668:	afa400b8 	sw	a0,184(sp)
9d00866c:	1000fffb 	b	9d00865c <__printf_core+0x130>
9d008670:	34420004 	ori	v0,v0,0x4
9d008674:	1000fff9 	b	9d00865c <__printf_core+0x130>
9d008678:	34420008 	ori	v0,v0,0x8
9d00867c:	1000fff7 	b	9d00865c <__printf_core+0x130>
9d008680:	34420010 	ori	v0,v0,0x10
9d008684:	5046fff4 	beql	v0,a2,9d008658 <__printf_core+0x12c>
9d008688:	8fa20098 	lw	v0,152(sp)
9d00868c:	5443ffe5 	bnel	v0,v1,9d008624 <__printf_core+0xf8>
9d008690:	2403002a 	li	v1,42
9d008694:	8fa20098 	lw	v0,152(sp)
9d008698:	1000fff0 	b	9d00865c <__printf_core+0x130>
9d00869c:	34420002 	ori	v0,v0,0x2
9d0086a0:	24840001 	addiu	a0,a0,1
9d0086a4:	afa400b8 	sw	a0,184(sp)
9d0086a8:	24430004 	addiu	v1,v0,4
9d0086ac:	8c420000 	lw	v0,0(v0)
9d0086b0:	ae230000 	sw	v1,0(s1)
9d0086b4:	04410006 	bgez	v0,9d0086d0 <__printf_core+0x1a4>
9d0086b8:	afa200a0 	sw	v0,160(sp)
9d0086bc:	8fa30098 	lw	v1,152(sp)
9d0086c0:	00021023 	negu	v0,v0
9d0086c4:	afa200a0 	sw	v0,160(sp)
9d0086c8:	38630001 	xori	v1,v1,0x1
9d0086cc:	afa30098 	sw	v1,152(sp)
9d0086d0:	8fa20098 	lw	v0,152(sp)
9d0086d4:	30430001 	andi	v1,v0,0x1
9d0086d8:	10600002 	beqz	v1,9d0086e4 <__printf_core+0x1b8>
9d0086dc:	7c020844 	ins	v0,zero,0x1,0x1
9d0086e0:	afa20098 	sw	v0,152(sp)
9d0086e4:	8fa200b8 	lw	v0,184(sp)
9d0086e8:	2403002e 	li	v1,46
9d0086ec:	80440000 	lb	a0,0(v0)
9d0086f0:	1483000d 	bne	a0,v1,9d008728 <__printf_core+0x1fc>
9d0086f4:	24440001 	addiu	a0,v0,1
9d0086f8:	afa0009c 	sw	zero,156(sp)
9d0086fc:	afa400b8 	sw	a0,184(sp)
9d008700:	80450001 	lb	a1,1(v0)
9d008704:	2403002a 	li	v1,42
9d008708:	14a30023 	bne	a1,v1,9d008798 <__printf_core+0x26c>
9d00870c:	24420002 	addiu	v0,v0,2
9d008710:	afa200b8 	sw	v0,184(sp)
9d008714:	8e220000 	lw	v0,0(s1)
9d008718:	24430004 	addiu	v1,v0,4
9d00871c:	8c420000 	lw	v0,0(v0)
9d008720:	ae230000 	sw	v1,0(s1)
9d008724:	afa2009c 	sw	v0,156(sp)
9d008728:	0f402b1c 	jal	9d00ac70 <__fmt_state>
9d00872c:	27a400b8 	addiu	a0,sp,184
9d008730:	afa200c0 	sw	v0,192(sp)
9d008734:	8fa200b8 	lw	v0,184(sp)
9d008738:	0f402c3b 	jal	9d00b0ec <tolower>
9d00873c:	80440000 	lb	a0,0(v0)
9d008740:	24030069 	li	v1,105
9d008744:	10430077 	beq	v0,v1,9d008924 <__printf_core+0x3f8>
9d008748:	8fa500c0 	lw	a1,192(sp)
9d00874c:	2843006a 	slti	v1,v0,106
9d008750:	1060002f 	beqz	v1,9d008810 <__printf_core+0x2e4>
9d008754:	24030063 	li	v1,99
9d008758:	104300be 	beq	v0,v1,9d008a54 <__printf_core+0x528>
9d00875c:	28430064 	slti	v1,v0,100
9d008760:	10600018 	beqz	v1,9d0087c4 <__printf_core+0x298>
9d008764:	24030025 	li	v1,37
9d008768:	104300cb 	beq	v0,v1,9d008a98 <__printf_core+0x56c>
9d00876c:	24030061 	li	v1,97
9d008770:	5043004f 	beql	v0,v1,9d0088b0 <__printf_core+0x384>
9d008774:	02203025 	move	a2,s1
9d008778:	2402ffff 	li	v0,-1
9d00877c:	afb500b8 	sw	s5,184(sp)
9d008780:	afa00098 	sw	zero,152(sp)
9d008784:	afa000a0 	sw	zero,160(sp)
9d008788:	afa2009c 	sw	v0,156(sp)
9d00878c:	afa00010 	sw	zero,16(sp)
9d008790:	100000c9 	b	9d008ab8 <__printf_core+0x58c>
9d008794:	00003825 	move	a3,zero
9d008798:	0f402a8f 	jal	9d00aa3c <atoi>
9d00879c:	00000000 	nop
9d0087a0:	afa2009c 	sw	v0,156(sp)
9d0087a4:	8fa300b8 	lw	v1,184(sp)
9d0087a8:	80620000 	lb	v0,0(v1)
9d0087ac:	2442ffd0 	addiu	v0,v0,-48
9d0087b0:	2c42000a 	sltiu	v0,v0,10
9d0087b4:	1040ffdc 	beqz	v0,9d008728 <__printf_core+0x1fc>
9d0087b8:	24630001 	addiu	v1,v1,1
9d0087bc:	1000fff9 	b	9d0087a4 <__printf_core+0x278>
9d0087c0:	afa300b8 	sw	v1,184(sp)
9d0087c4:	24030064 	li	v1,100
9d0087c8:	10430056 	beq	v0,v1,9d008924 <__printf_core+0x3f8>
9d0087cc:	28420068 	slti	v0,v0,104
9d0087d0:	1040ffea 	beqz	v0,9d00877c <__printf_core+0x250>
9d0087d4:	2402ffff 	li	v0,-1
9d0087d8:	02203025 	move	a2,s1
9d0087dc:	0f402b47 	jal	9d00ad1c <__pop_float>
9d0087e0:	27a400b0 	addiu	a0,sp,176
9d0087e4:	10400097 	beqz	v0,9d008a44 <__printf_core+0x518>
9d0087e8:	8fa200b8 	lw	v0,184(sp)
9d0087ec:	27a600b0 	addiu	a2,sp,176
9d0087f0:	27a50098 	addiu	a1,sp,152
9d0087f4:	24430001 	addiu	v1,v0,1
9d0087f8:	afa300b8 	sw	v1,184(sp)
9d0087fc:	80470000 	lb	a3,0(v0)
9d008800:	0f401d44 	jal	9d007510 <__fmt_fp>
9d008804:	02402025 	move	a0,s2
9d008808:	10000035 	b	9d0088e0 <__printf_core+0x3b4>
9d00880c:	02028021 	addu	s0,s0,v0
9d008810:	24030070 	li	v1,112
9d008814:	1043006e 	beq	v0,v1,9d0089d0 <__printf_core+0x4a4>
9d008818:	28430071 	slti	v1,v0,113
9d00881c:	10600013 	beqz	v1,9d00886c <__printf_core+0x340>
9d008820:	2403006e 	li	v1,110
9d008824:	10430083 	beq	v0,v1,9d008a34 <__printf_core+0x508>
9d008828:	2403006f 	li	v1,111
9d00882c:	1443ffd3 	bne	v0,v1,9d00877c <__printf_core+0x250>
9d008830:	2402ffff 	li	v0,-1
9d008834:	02203825 	move	a3,s1
9d008838:	00003025 	move	a2,zero
9d00883c:	0f40274f 	jal	9d009d3c <__pop_int>
9d008840:	27a400b0 	addiu	a0,sp,176
9d008844:	1040007f 	beqz	v0,9d008a44 <__printf_core+0x518>
9d008848:	8fa200b8 	lw	v0,184(sp)
9d00884c:	27a600b0 	addiu	a2,sp,176
9d008850:	27a50098 	addiu	a1,sp,152
9d008854:	24420001 	addiu	v0,v0,1
9d008858:	02402025 	move	a0,s2
9d00885c:	0f402c6b 	jal	9d00b1ac <__fmt_d>
9d008860:	afa200b8 	sw	v0,184(sp)
9d008864:	1000001e 	b	9d0088e0 <__printf_core+0x3b4>
9d008868:	02028021 	addu	s0,s0,v0
9d00886c:	24030075 	li	v1,117
9d008870:	1043003a 	beq	v0,v1,9d00895c <__printf_core+0x430>
9d008874:	24030078 	li	v1,120
9d008878:	10430046 	beq	v0,v1,9d008994 <__printf_core+0x468>
9d00887c:	24030073 	li	v1,115
9d008880:	1443ffbd 	bne	v0,v1,9d008778 <__printf_core+0x24c>
9d008884:	24020080 	li	v0,128
9d008888:	14a2006e 	bne	a1,v0,9d008a44 <__printf_core+0x518>
9d00888c:	8fa200b8 	lw	v0,184(sp)
9d008890:	00003825 	move	a3,zero
9d008894:	24420001 	addiu	v0,v0,1
9d008898:	afa200b8 	sw	v0,184(sp)
9d00889c:	8e220000 	lw	v0,0(s1)
9d0088a0:	24430004 	addiu	v1,v0,4
9d0088a4:	ae230000 	sw	v1,0(s1)
9d0088a8:	10000076 	b	9d008a84 <__printf_core+0x558>
9d0088ac:	8c460000 	lw	a2,0(v0)
9d0088b0:	0f402b47 	jal	9d00ad1c <__pop_float>
9d0088b4:	27a400b0 	addiu	a0,sp,176
9d0088b8:	10400062 	beqz	v0,9d008a44 <__printf_core+0x518>
9d0088bc:	8fa200b8 	lw	v0,184(sp)
9d0088c0:	27a600b0 	addiu	a2,sp,176
9d0088c4:	27a50098 	addiu	a1,sp,152
9d0088c8:	24430001 	addiu	v1,v0,1
9d0088cc:	afa300b8 	sw	v1,184(sp)
9d0088d0:	80470000 	lb	a3,0(v0)
9d0088d4:	0f402c6d 	jal	9d00b1b4 <__fmt_a>
9d0088d8:	02402025 	move	a0,s2
9d0088dc:	02028021 	addu	s0,s0,v0
9d0088e0:	02708021 	addu	s0,s3,s0
9d0088e4:	0213982a 	slt	s3,s0,s3
9d0088e8:	12600077 	beqz	s3,9d008ac8 <__printf_core+0x59c>
9d0088ec:	3c02a000 	lui	v0,0xa000
9d0088f0:	2403004f 	li	v1,79
9d0088f4:	ac430004 	sw	v1,4(v0)
9d0088f8:	2413ffff 	li	s3,-1
9d0088fc:	8fbf00e4 	lw	ra,228(sp)
9d008900:	02601025 	move	v0,s3
9d008904:	8fb500e0 	lw	s5,224(sp)
9d008908:	8fb400dc 	lw	s4,220(sp)
9d00890c:	8fb300d8 	lw	s3,216(sp)
9d008910:	8fb200d4 	lw	s2,212(sp)
9d008914:	8fb100d0 	lw	s1,208(sp)
9d008918:	8fb000cc 	lw	s0,204(sp)
9d00891c:	03e00008 	jr	ra
9d008920:	27bd00e8 	addiu	sp,sp,232
9d008924:	02203825 	move	a3,s1
9d008928:	24060001 	li	a2,1
9d00892c:	0f40274f 	jal	9d009d3c <__pop_int>
9d008930:	27a400b0 	addiu	a0,sp,176
9d008934:	10400043 	beqz	v0,9d008a44 <__printf_core+0x518>
9d008938:	8fa200b8 	lw	v0,184(sp)
9d00893c:	27a600b0 	addiu	a2,sp,176
9d008940:	27a50098 	addiu	a1,sp,152
9d008944:	24420001 	addiu	v0,v0,1
9d008948:	02402025 	move	a0,s2
9d00894c:	0f402c6b 	jal	9d00b1ac <__fmt_d>
9d008950:	afa200b8 	sw	v0,184(sp)
9d008954:	1000ffe2 	b	9d0088e0 <__printf_core+0x3b4>
9d008958:	02028021 	addu	s0,s0,v0
9d00895c:	02203825 	move	a3,s1
9d008960:	00003025 	move	a2,zero
9d008964:	0f40274f 	jal	9d009d3c <__pop_int>
9d008968:	27a400b0 	addiu	a0,sp,176
9d00896c:	10400035 	beqz	v0,9d008a44 <__printf_core+0x518>
9d008970:	8fa200b8 	lw	v0,184(sp)
9d008974:	27a600b0 	addiu	a2,sp,176
9d008978:	27a50098 	addiu	a1,sp,152
9d00897c:	24420001 	addiu	v0,v0,1
9d008980:	02402025 	move	a0,s2
9d008984:	0f402c6b 	jal	9d00b1ac <__fmt_d>
9d008988:	afa200b8 	sw	v0,184(sp)
9d00898c:	1000ffd4 	b	9d0088e0 <__printf_core+0x3b4>
9d008990:	02028021 	addu	s0,s0,v0
9d008994:	02203825 	move	a3,s1
9d008998:	00003025 	move	a2,zero
9d00899c:	0f40274f 	jal	9d009d3c <__pop_int>
9d0089a0:	27a400b0 	addiu	a0,sp,176
9d0089a4:	10400027 	beqz	v0,9d008a44 <__printf_core+0x518>
9d0089a8:	8fa200b8 	lw	v0,184(sp)
9d0089ac:	24430001 	addiu	v1,v0,1
9d0089b0:	afa300b8 	sw	v1,184(sp)
9d0089b4:	80470000 	lb	a3,0(v0)
9d0089b8:	27a600b0 	addiu	a2,sp,176
9d0089bc:	27a50098 	addiu	a1,sp,152
9d0089c0:	0f402c6d 	jal	9d00b1b4 <__fmt_a>
9d0089c4:	02402025 	move	a0,s2
9d0089c8:	1000ffc5 	b	9d0088e0 <__printf_core+0x3b4>
9d0089cc:	02028021 	addu	s0,s0,v0
9d0089d0:	02203825 	move	a3,s1
9d0089d4:	00003025 	move	a2,zero
9d0089d8:	240500f0 	li	a1,240
9d0089dc:	0f40274f 	jal	9d009d3c <__pop_int>
9d0089e0:	27a400b0 	addiu	a0,sp,176
9d0089e4:	10400017 	beqz	v0,9d008a44 <__printf_core+0x518>
9d0089e8:	8fa200b8 	lw	v0,184(sp)
9d0089ec:	8fa300b4 	lw	v1,180(sp)
9d0089f0:	24420001 	addiu	v0,v0,1
9d0089f4:	afa200b8 	sw	v0,184(sp)
9d0089f8:	8fa200b0 	lw	v0,176(sp)
9d0089fc:	00431025 	or	v0,v0,v1
9d008a00:	1440ffed 	bnez	v0,9d0089b8 <__printf_core+0x48c>
9d008a04:	24070078 	li	a3,120
9d008a08:	0f402bdf 	jal	9d00af7c <strlen>
9d008a0c:	268474c8 	addiu	a0,s4,29896
9d008a10:	8fa30098 	lw	v1,152(sp)
9d008a14:	8fa700a0 	lw	a3,160(sp)
9d008a18:	00403025 	move	a2,v0
9d008a1c:	afa30010 	sw	v1,16(sp)
9d008a20:	268574c8 	addiu	a1,s4,29896
9d008a24:	0f402889 	jal	9d00a224 <__pad>
9d008a28:	02402025 	move	a0,s2
9d008a2c:	1000ffac 	b	9d0088e0 <__printf_core+0x3b4>
9d008a30:	02028021 	addu	s0,s0,v0
9d008a34:	02203825 	move	a3,s1
9d008a38:	02703021 	addu	a2,s3,s0
9d008a3c:	0f402945 	jal	9d00a514 <__pop_ptr>
9d008a40:	27a400b0 	addiu	a0,sp,176
9d008a44:	8fa200b8 	lw	v0,184(sp)
9d008a48:	24420001 	addiu	v0,v0,1
9d008a4c:	1000ffa4 	b	9d0088e0 <__printf_core+0x3b4>
9d008a50:	afa200b8 	sw	v0,184(sp)
9d008a54:	24020080 	li	v0,128
9d008a58:	14a2fffa 	bne	a1,v0,9d008a44 <__printf_core+0x518>
9d008a5c:	8fa200b8 	lw	v0,184(sp)
9d008a60:	24070001 	li	a3,1
9d008a64:	27a600b0 	addiu	a2,sp,176
9d008a68:	24420001 	addiu	v0,v0,1
9d008a6c:	afa200b8 	sw	v0,184(sp)
9d008a70:	8e220000 	lw	v0,0(s1)
9d008a74:	24430004 	addiu	v1,v0,4
9d008a78:	8c420000 	lw	v0,0(v0)
9d008a7c:	ae230000 	sw	v1,0(s1)
9d008a80:	a3a200b0 	sb	v0,176(sp)
9d008a84:	27a50098 	addiu	a1,sp,152
9d008a88:	0f402c6f 	jal	9d00b1bc <__fmt_s>
9d008a8c:	02402025 	move	a0,s2
9d008a90:	1000ff93 	b	9d0088e0 <__printf_core+0x3b4>
9d008a94:	02028021 	addu	s0,s0,v0
9d008a98:	24020080 	li	v0,128
9d008a9c:	14a2ffe9 	bne	a1,v0,9d008a44 <__printf_core+0x518>
9d008aa0:	8fa200b8 	lw	v0,184(sp)
9d008aa4:	8fa700a0 	lw	a3,160(sp)
9d008aa8:	24420001 	addiu	v0,v0,1
9d008aac:	afa200b8 	sw	v0,184(sp)
9d008ab0:	8fa20098 	lw	v0,152(sp)
9d008ab4:	afa20010 	sw	v0,16(sp)
9d008ab8:	3c059d00 	lui	a1,0x9d00
9d008abc:	24060001 	li	a2,1
9d008ac0:	1000ffd8 	b	9d008a24 <__printf_core+0x4f8>
9d008ac4:	24a574d0 	addiu	a1,a1,29904
9d008ac8:	1000fea5 	b	9d008560 <__printf_core+0x34>
9d008acc:	02009825 	move	s3,s0

Disassembly of section .text.dp32mul:

9d008ad0 <__divdf3>:
9d008ad0:	00055040 000a5542 00054ac0 00047d42     @P..BU...J..B}..
9d008ae0:	012f4825 000442c0 3c0e8000 012e4825     %H/..B.....<%H..
9d008af0:	00076840 000d6d42 000762c0 00067d42     @h..Bm...b..B}..
9d008b00:	018f6025 00065ac0 018e6025 00a72826     %`...Z..%`..&(..
9d008b10:	00ae2824 254fffff 2de107fe 102000cb     $(....O%...-.. .
9d008b20:	00000000                                ....

9d008b24 <Dlab1>:
9d008b24:	25afffff 	addiu	t7,t5,-1
9d008b28:	2de107fe 	sltiu	at,t7,2046
9d008b2c:	102000f4 	beqz	at,9d008f00 <DspecB>
9d008b30:	00000000 	nop

9d008b34 <Dlab2>:
9d008b34:	014d5023 	subu	t2,t2,t5
9d008b38:	254a03ff 	addiu	t2,t2,1023
9d008b3c:	00084042 	srl	t0,t0,0x1
9d008b40:	00097fc0 	sll	t7,t1,0x1f
9d008b44:	010f4025 	or	t0,t0,t7
9d008b48:	00094842 	srl	t1,t1,0x1
9d008b4c:	000c3c02 	srl	a3,t4,0x10
9d008b50:	00e001f4 	teq	a3,zero,0x7
9d008b54:	0127001b 	divu	zero,t1,a3
9d008b58:	00007012 	mflo	t6
9d008b5c:	00004810 	mfhi	t1
9d008b60:	3186ffff 	andi	a2,t4,0xffff
9d008b64:	00ce0019 	multu	a2,t6
9d008b68:	00002012 	mflo	a0
9d008b6c:	00094c00 	sll	t1,t1,0x10
9d008b70:	00087c02 	srl	t7,t0,0x10
9d008b74:	012f4825 	or	t1,t1,t7
9d008b78:	0124782b 	sltu	t7,t1,a0
9d008b7c:	11e00006 	beqz	t7,9d008b98 <i20>
9d008b80:	01244823 	subu	t1,t1,a0

9d008b84 <b21>:
9d008b84:	25ceffff 	addiu	t6,t6,-1
9d008b88:	012c4821 	addu	t1,t1,t4
9d008b8c:	012c082b 	sltu	at,t1,t4
9d008b90:	1020fffc 	beqz	at,9d008b84 <b21>
9d008b94:	00000000 	nop

9d008b98 <i20>:
9d008b98:	00e001f4 	teq	a3,zero,0x7
9d008b9c:	0127001b 	divu	zero,t1,a3
9d008ba0:	00003812 	mflo	a3
9d008ba4:	00004810 	mfhi	t1
9d008ba8:	00c70019 	multu	a2,a3
9d008bac:	00002012 	mflo	a0
9d008bb0:	00094c00 	sll	t1,t1,0x10
9d008bb4:	310fffff 	andi	t7,t0,0xffff
9d008bb8:	012f4825 	or	t1,t1,t7
9d008bbc:	0124782b 	sltu	t7,t1,a0
9d008bc0:	11e00006 	beqz	t7,9d008bdc <i22>
9d008bc4:	01244823 	subu	t1,t1,a0

9d008bc8 <b23>:
9d008bc8:	24e7ffff 	addiu	a3,a3,-1
9d008bcc:	012c4821 	addu	t1,t1,t4
9d008bd0:	012c082b 	sltu	at,t1,t4
9d008bd4:	1020fffc 	beqz	at,9d008bc8 <b23>
9d008bd8:	00000000 	nop

9d008bdc <i22>:
9d008bdc:	000e7400 	sll	t6,t6,0x10
9d008be0:	01c77021 	addu	t6,t6,a3
9d008be4:	01cb0019 	multu	t6,t3
9d008be8:	00003812 	mflo	a3
9d008bec:	00002010 	mfhi	a0
9d008bf0:	24080000 	li	t0,0
9d008bf4:	0107782b 	sltu	t7,t0,a3
9d008bf8:	01074023 	subu	t0,t0,a3
9d008bfc:	012f102b 	sltu	v0,t1,t7
9d008c00:	012f4823 	subu	t1,t1,t7
9d008c04:	0124782b 	sltu	t7,t1,a0
9d008c08:	01e27825 	or	t7,t7,v0
9d008c0c:	11e0000b 	beqz	t7,9d008c3c <i24>
9d008c10:	01244823 	subu	t1,t1,a0

9d008c14 <Dlab3>:
9d008c14:	25ceffff 	addiu	t6,t6,-1
9d008c18:	010b4021 	addu	t0,t0,t3
9d008c1c:	010b782b 	sltu	t7,t0,t3
9d008c20:	012c4821 	addu	t1,t1,t4
9d008c24:	012f4821 	addu	t1,t1,t7
9d008c28:	112c0002 	beq	t1,t4,9d008c34 <L31>
9d008c2c:	00000000 	nop
9d008c30:	012c782b 	sltu	t7,t1,t4

9d008c34 <L31>:
9d008c34:	11e0fff7 	beqz	t7,9d008c14 <Dlab3>
9d008c38:	00000000 	nop

9d008c3c <i24>:
9d008c3c:	152c0006 	bne	t1,t4,9d008c58 <i25>
9d008c40:	00000000 	nop
9d008c44:	000b2025 	or	a0,zero,t3
9d008c48:	00084825 	or	t1,zero,t0
9d008c4c:	240d0000 	li	t5,0
9d008c50:	1000002a 	b	9d008cfc <e25>
9d008c54:	000d3825 	or	a3,zero,t5

9d008c58 <i25>:
9d008c58:	000c3c02 	srl	a3,t4,0x10
9d008c5c:	00e001f4 	teq	a3,zero,0x7
9d008c60:	0127001b 	divu	zero,t1,a3
9d008c64:	00006812 	mflo	t5
9d008c68:	00004810 	mfhi	t1
9d008c6c:	3186ffff 	andi	a2,t4,0xffff
9d008c70:	00cd0019 	multu	a2,t5
9d008c74:	00002012 	mflo	a0
9d008c78:	00094c00 	sll	t1,t1,0x10
9d008c7c:	00087c02 	srl	t7,t0,0x10
9d008c80:	012f4825 	or	t1,t1,t7
9d008c84:	0124782b 	sltu	t7,t1,a0
9d008c88:	11e00006 	beqz	t7,9d008ca4 <i26>
9d008c8c:	01244823 	subu	t1,t1,a0

9d008c90 <b27>:
9d008c90:	25adffff 	addiu	t5,t5,-1
9d008c94:	012c4821 	addu	t1,t1,t4
9d008c98:	012c082b 	sltu	at,t1,t4
9d008c9c:	1020fffc 	beqz	at,9d008c90 <b27>
9d008ca0:	00000000 	nop

9d008ca4 <i26>:
9d008ca4:	00e001f4 	teq	a3,zero,0x7
9d008ca8:	0127001b 	divu	zero,t1,a3
9d008cac:	00003812 	mflo	a3
9d008cb0:	00004810 	mfhi	t1
9d008cb4:	00c70019 	multu	a2,a3
9d008cb8:	00002012 	mflo	a0
9d008cbc:	00094c00 	sll	t1,t1,0x10
9d008cc0:	310fffff 	andi	t7,t0,0xffff
9d008cc4:	012f4825 	or	t1,t1,t7
9d008cc8:	0124782b 	sltu	t7,t1,a0
9d008ccc:	11e00006 	beqz	t7,9d008ce8 <i28>
9d008cd0:	01244823 	subu	t1,t1,a0

9d008cd4 <b29>:
9d008cd4:	24e7ffff 	addiu	a3,a3,-1
9d008cd8:	012c4821 	addu	t1,t1,t4
9d008cdc:	012c082b 	sltu	at,t1,t4
9d008ce0:	1020fffc 	beqz	at,9d008cd4 <b29>
9d008ce4:	00000000 	nop

9d008ce8 <i28>:
9d008ce8:	000d6c00 	sll	t5,t5,0x10
9d008cec:	01a76821 	addu	t5,t5,a3
9d008cf0:	01ab0019 	multu	t5,t3
9d008cf4:	00003812 	mflo	a3
9d008cf8:	00002010 	mfhi	a0

9d008cfc <e25>:
9d008cfc:	24080000 	li	t0,0
9d008d00:	0107782b 	sltu	t7,t0,a3
9d008d04:	01074023 	subu	t0,t0,a3
9d008d08:	012f102b 	sltu	v0,t1,t7
9d008d0c:	012f4823 	subu	t1,t1,t7
9d008d10:	0124782b 	sltu	t7,t1,a0
9d008d14:	01e27825 	or	t7,t7,v0
9d008d18:	11e0000b 	beqz	t7,9d008d48 <i30>
9d008d1c:	01244823 	subu	t1,t1,a0

9d008d20 <Dlab4>:
9d008d20:	25adffff 	addiu	t5,t5,-1
9d008d24:	010b4021 	addu	t0,t0,t3
9d008d28:	010b782b 	sltu	t7,t0,t3
9d008d2c:	012c4821 	addu	t1,t1,t4
9d008d30:	012f4821 	addu	t1,t1,t7
9d008d34:	112c0002 	beq	t1,t4,9d008d40 <L32>
9d008d38:	00000000 	nop
9d008d3c:	012c782b 	sltu	t7,t1,t4

9d008d40 <L32>:
9d008d40:	11e0fff7 	beqz	t7,9d008d20 <Dlab4>
9d008d44:	00000000 	nop

9d008d48 <i30>:
9d008d48:	05c00006 	bltz	t6,9d008d64 <i31>
9d008d4c:	00000000 	nop
9d008d50:	01a0782a 	slt	t7,t5,zero
9d008d54:	01ad6821 	addu	t5,t5,t5
9d008d58:	01ce7021 	addu	t6,t6,t6
9d008d5c:	01cf7021 	addu	t6,t6,t7
9d008d60:	254affff 	addiu	t2,t2,-1

9d008d64 <i31>:
9d008d64:	01287825 	or	t7,t1,t0
9d008d68:	11e00002 	beqz	t7,9d008d74 <i32>
9d008d6c:	00000000 	nop
9d008d70:	35ad0001 	ori	t5,t5,0x1

9d008d74 <i32>:
9d008d74:	000e4825 	or	t1,zero,t6
9d008d78:	000d4025 	or	t0,zero,t5
9d008d7c:	254fffff 	addiu	t7,t2,-1
9d008d80:	2de107fe 	sltiu	at,t7,2046
9d008d84:	10200015 	beqz	at,9d008ddc <Doveund>
9d008d88:	00000000 	nop
9d008d8c:	25080400 	addiu	t0,t0,1024
9d008d90:	2d0f0400 	sltiu	t7,t0,1024
9d008d94:	012f4821 	addu	t1,t1,t7
9d008d98:	012f782b 	sltu	t7,t1,t7
9d008d9c:	014f5021 	addu	t2,t2,t7

9d008da0 <Dlab8>:
9d008da0:	00087ac2 	srl	t7,t0,0xb
9d008da4:	31ef0001 	andi	t7,t7,0x1
9d008da8:	010f4023 	subu	t0,t0,t7
9d008dac:	000822c2 	srl	a0,t0,0xb
9d008db0:	00097d40 	sll	t7,t1,0x15
9d008db4:	008f2025 	or	a0,a0,t7
9d008db8:	00097840 	sll	t7,t1,0x1
9d008dbc:	000f7b02 	srl	t7,t7,0xc
9d008dc0:	00af2825 	or	a1,a1,t7
9d008dc4:	000a7d00 	sll	t7,t2,0x14
9d008dc8:	00af2825 	or	a1,a1,t7

9d008dcc <Dret>:
9d008dcc:	00041025 	or	v0,zero,a0
9d008dd0:	00051825 	or	v1,zero,a1

9d008dd4 <D999>:
9d008dd4:	03e00008 	jr	ra
9d008dd8:	00000000 	nop

9d008ddc <Doveund>:
9d008ddc:	1d400044 	bgtz	t2,9d008ef0 <Dinf>
9d008de0:	00000000 	nop
9d008de4:	240e0001 	li	t6,1
9d008de8:	01ca7023 	subu	t6,t6,t2

9d008dec <L33>:
9d008dec:	2dc10020 	sltiu	at,t6,32
9d008df0:	14200007 	bnez	at,9d008e10 <L34>
9d008df4:	00000000 	nop
9d008df8:	21ceffe0 	addi	t6,t6,-32
9d008dfc:	0008202b 	sltu	a0,zero,t0
9d008e00:	1009000d 	beq	zero,t1,9d008e38 <L35>
9d008e04:	01244025 	or	t0,t1,a0
9d008e08:	1000fff8 	b	9d008dec <L33>
9d008e0c:	34090000 	li	t1,0x0

9d008e10 <L34>:
9d008e10:	11c00009 	beqz	t6,9d008e38 <L35>
9d008e14:	00000000 	nop
9d008e18:	000e3022 	neg	a2,t6
9d008e1c:	00c82004 	sllv	a0,t0,a2
9d008e20:	00c93004 	sllv	a2,t1,a2
9d008e24:	01c84006 	srlv	t0,t0,t6
9d008e28:	01c94806 	srlv	t1,t1,t6
9d008e2c:	10800002 	beqz	a0,9d008e38 <L35>
9d008e30:	00c84025 	or	t0,a2,t0
9d008e34:	35080002 	ori	t0,t0,0x2

9d008e38 <L35>:
9d008e38:	25080400 	addiu	t0,t0,1024
9d008e3c:	2d0f0400 	sltiu	t7,t0,1024
9d008e40:	012f4821 	addu	t1,t1,t7
9d008e44:	1000ffd6 	b	9d008da0 <Dlab8>
9d008e48:	000957c2 	srl	t2,t1,0x1f

9d008e4c <DspecA>:
9d008e4c:	0100782a 	slt	t7,t0,zero
9d008e50:	01084021 	addu	t0,t0,t0
9d008e54:	01294821 	addu	t1,t1,t1
9d008e58:	15400017 	bnez	t2,9d008eb8 <i33>
9d008e5c:	012f4821 	addu	t1,t1,t7
9d008e60:	01287825 	or	t7,t1,t0
9d008e64:	11e00014 	beqz	t7,9d008eb8 <i33>
9d008e68:	00000000 	nop
9d008e6c:	15200008 	bnez	t1,9d008e90 <L36>
9d008e70:	00000000 	nop
9d008e74:	15000003 	bnez	t0,9d008e84 <L37>
9d008e78:	00000000 	nop
9d008e7c:	1000ff29 	b	9d008b24 <Dlab1>
9d008e80:	240a0000 	li	t2,0

9d008e84 <L37>:
9d008e84:	01004825 	move	t1,t0
9d008e88:	24080000 	li	t0,0
9d008e8c:	254affe0 	addiu	t2,t2,-32

9d008e90 <L36>:
9d008e90:	712e7020 	clz	t6,t1
9d008e94:	11c0ff23 	beqz	t6,9d008b24 <Dlab1>
9d008e98:	00000000 	nop
9d008e9c:	014e5023 	subu	t2,t2,t6
9d008ea0:	000e3022 	neg	a2,t6
9d008ea4:	00c83006 	srlv	a2,t0,a2
9d008ea8:	01c84004 	sllv	t0,t0,t6
9d008eac:	01c94804 	sllv	t1,t1,t6
9d008eb0:	1000ff1c 	b	9d008b24 <Dlab1>
9d008eb4:	01264825 	or	t1,t1,a2

9d008eb8 <i33>:
9d008eb8:	154d0005 	bne	t2,t5,9d008ed0 <i35>
9d008ebc:	00000000 	nop
9d008ec0:	000c7840 	sll	t7,t4,0x1
9d008ec4:	01eb7825 	or	t7,t7,t3
9d008ec8:	11e0002b 	beqz	t7,9d008f78 <Dnan>
9d008ecc:	00000000 	nop

9d008ed0 <i35>:
9d008ed0:	240107ff 	li	at,2047
9d008ed4:	11a1000a 	beq	t5,at,9d008f00 <DspecB>
9d008ed8:	00000000 	nop
9d008edc:	1140ffbb 	beqz	t2,9d008dcc <Dret>
9d008ee0:	00000000 	nop
9d008ee4:	01287825 	or	t7,t1,t0
9d008ee8:	15e00023 	bnez	t7,9d008f78 <Dnan>
9d008eec:	00000000 	nop

9d008ef0 <Dinf>:
9d008ef0:	3c017ff0 	lui	at,0x7ff0
9d008ef4:	00a12825 	or	a1,a1,at
9d008ef8:	1000ffb4 	b	9d008dcc <Dret>
9d008efc:	24040000 	li	a0,0

9d008f00 <DspecB>:
9d008f00:	0160782a 	slt	t7,t3,zero
9d008f04:	016b5821 	addu	t3,t3,t3
9d008f08:	018c6021 	addu	t4,t4,t4
9d008f0c:	15a00017 	bnez	t5,9d008f6c <i36>
9d008f10:	018f6021 	addu	t4,t4,t7
9d008f14:	018b7825 	or	t7,t4,t3
9d008f18:	11e0fff5 	beqz	t7,9d008ef0 <Dinf>
9d008f1c:	00000000 	nop
9d008f20:	15800008 	bnez	t4,9d008f44 <L39>
9d008f24:	00000000 	nop
9d008f28:	15600003 	bnez	t3,9d008f38 <L40>
9d008f2c:	00000000 	nop
9d008f30:	1000ff00 	b	9d008b34 <Dlab2>
9d008f34:	240d0000 	li	t5,0

9d008f38 <L40>:
9d008f38:	01606025 	move	t4,t3
9d008f3c:	240b0000 	li	t3,0
9d008f40:	25adffe0 	addiu	t5,t5,-32

9d008f44 <L39>:
9d008f44:	718e7020 	clz	t6,t4
9d008f48:	11c0fefa 	beqz	t6,9d008b34 <Dlab2>
9d008f4c:	00000000 	nop
9d008f50:	01ae6823 	subu	t5,t5,t6
9d008f54:	000e3022 	neg	a2,t6
9d008f58:	00cb3006 	srlv	a2,t3,a2
9d008f5c:	01cb5804 	sllv	t3,t3,t6
9d008f60:	01cc6004 	sllv	t4,t4,t6
9d008f64:	1000fef3 	b	9d008b34 <Dlab2>
9d008f68:	01866025 	or	t4,t4,a2

9d008f6c <i36>:
9d008f6c:	018b7825 	or	t7,t4,t3
9d008f70:	11e00002 	beqz	t7,9d008f7c <i38>
9d008f74:	00000000 	nop

9d008f78 <Dnan>:
9d008f78:	3c05fff8 	lui	a1,0xfff8

9d008f7c <i38>:
9d008f7c:	1000ff93 	b	9d008dcc <Dret>
9d008f80:	24040000 	li	a0,0
9d008f84:	00000000 	nop

Disassembly of section .text.dp32subadd:

9d008f88 <__subdf3>:
9d008f88:	3c018000 00e13826                       ...<&8..

9d008f90 <__adddf3>:
9d008f90:	00055840 000b5d42 000552c0 00047d42     @X..B]...R..B}..
9d008fa0:	014f5025 00044ac0 3c088000 01485025     %PO..J.....<%PH.
9d008fb0:	00077040 000e7542 00076ac0 00067d42     @p..Bu...j..B}..
9d008fc0:	01af6825 000662c0 01a86825 256fffff     %h...b..%h....o%
9d008fd0:	2de107fe 1020008d 00000000              ...-.. .....

9d008fdc <Blab1>:
9d008fdc:	25cfffff 	addiu	t7,t6,-1
9d008fe0:	2de107fe 	sltiu	at,t7,2046
9d008fe4:	102000bb 	beqz	at,9d0092d4 <BspecB>
9d008fe8:	00000000 	nop

9d008fec <Blab2>:
9d008fec:	3c018000 	lui	at,0x8000
9d008ff0:	00a12824 	and	a1,a1,at
9d008ff4:	016e4023 	subu	t0,t3,t6
9d008ff8:	1100002c 	beqz	t0,9d0090ac <Badd3>
9d008ffc:	00000000 	nop
9d009000:	19000015 	blez	t0,9d009058 <i1>
9d009004:	00000000 	nop

9d009008 <L1>:
9d009008:	2d010020 	sltiu	at,t0,32
9d00900c:	14200007 	bnez	at,9d00902c <L2>
9d009010:	00000000 	nop
9d009014:	2108ffe0 	addi	t0,t0,-32
9d009018:	000c302b 	sltu	a2,zero,t4
9d00901c:	100d0023 	beq	zero,t5,9d0090ac <Badd3>
9d009020:	01a66025 	or	t4,t5,a2
9d009024:	1000fff8 	b	9d009008 <L1>
9d009028:	340d0000 	li	t5,0x0

9d00902c <L2>:
9d00902c:	1100001f 	beqz	t0,9d0090ac <Badd3>
9d009030:	00000000 	nop
9d009034:	00082022 	neg	a0,t0
9d009038:	008c3004 	sllv	a2,t4,a0
9d00903c:	008d2004 	sllv	a0,t5,a0
9d009040:	010c6006 	srlv	t4,t4,t0
9d009044:	010d6806 	srlv	t5,t5,t0
9d009048:	10c00018 	beqz	a2,9d0090ac <Badd3>
9d00904c:	008c6025 	or	t4,a0,t4
9d009050:	10000016 	b	9d0090ac <Badd3>
9d009054:	358c0002 	ori	t4,t4,0x2

9d009058 <i1>:
9d009058:	000e5825 	or	t3,zero,t6
9d00905c:	00084023 	negu	t0,t0

9d009060 <L4>:
9d009060:	2d010020 	sltiu	at,t0,32
9d009064:	14200007 	bnez	at,9d009084 <L5>
9d009068:	00000000 	nop
9d00906c:	2108ffe0 	addi	t0,t0,-32
9d009070:	0009302b 	sltu	a2,zero,t1
9d009074:	100a000d 	beq	zero,t2,9d0090ac <Badd3>
9d009078:	01464825 	or	t1,t2,a2
9d00907c:	1000fff8 	b	9d009060 <L4>
9d009080:	340a0000 	li	t2,0x0

9d009084 <L5>:
9d009084:	11000009 	beqz	t0,9d0090ac <Badd3>
9d009088:	00000000 	nop
9d00908c:	00082022 	neg	a0,t0
9d009090:	00893004 	sllv	a2,t1,a0
9d009094:	008a2004 	sllv	a0,t2,a0
9d009098:	01094806 	srlv	t1,t1,t0
9d00909c:	010a5006 	srlv	t2,t2,t0
9d0090a0:	10c00002 	beqz	a2,9d0090ac <Badd3>
9d0090a4:	00894825 	or	t1,a0,t1
9d0090a8:	35290002 	ori	t1,t1,0x2

9d0090ac <Badd3>:
9d0090ac:	00a77826 	xor	t7,a1,a3
9d0090b0:	05e0001c 	bltz	t7,9d009124 <Bsub1>
9d0090b4:	00000000 	nop
9d0090b8:	012c4821 	addu	t1,t1,t4
9d0090bc:	012c782b 	sltu	t7,t1,t4
9d0090c0:	014d5021 	addu	t2,t2,t5
9d0090c4:	014f5021 	addu	t2,t2,t7
9d0090c8:	114d0002 	beq	t2,t5,9d0090d4 <L7>
9d0090cc:	00000000 	nop
9d0090d0:	014d782b 	sltu	t7,t2,t5

9d0090d4 <L7>:
9d0090d4:	11e00037 	beqz	t7,9d0091b4 <Bres>
9d0090d8:	00000000 	nop
9d0090dc:	312f0001 	andi	t7,t1,0x1
9d0090e0:	11e00002 	beqz	t7,9d0090ec <i3>
9d0090e4:	00000000 	nop
9d0090e8:	35290002 	ori	t1,t1,0x2

9d0090ec <i3>:
9d0090ec:	00094842 	srl	t1,t1,0x1
9d0090f0:	000a7fc0 	sll	t7,t2,0x1f
9d0090f4:	012f4825 	or	t1,t1,t7
9d0090f8:	000a5042 	srl	t2,t2,0x1
9d0090fc:	3c018000 	lui	at,0x8000
9d009100:	01415025 	or	t2,t2,at
9d009104:	256b0001 	addiu	t3,t3,1
9d009108:	240107ff 	li	at,2047
9d00910c:	15610029 	bne	t3,at,9d0091b4 <Bres>
9d009110:	00000000 	nop
9d009114:	3c017ff0 	lui	at,0x7ff0
9d009118:	00a12825 	or	a1,a1,at
9d00911c:	10000037 	b	9d0091fc <BretA>
9d009120:	24040000 	li	a0,0

9d009124 <Bsub1>:
9d009124:	012c782b 	sltu	t7,t1,t4
9d009128:	012c4823 	subu	t1,t1,t4
9d00912c:	014f102b 	sltu	v0,t2,t7
9d009130:	014f5023 	subu	t2,t2,t7
9d009134:	014d782b 	sltu	t7,t2,t5
9d009138:	01e27825 	or	t7,t7,v0
9d00913c:	11e00007 	beqz	t7,9d00915c <i5>
9d009140:	014d5023 	subu	t2,t2,t5
9d009144:	3c018000 	lui	at,0x8000
9d009148:	00a12826 	xor	a1,a1,at
9d00914c:	0009782b 	sltu	t7,zero,t1
9d009150:	00094823 	negu	t1,t1
9d009154:	000a5023 	negu	t2,t2
9d009158:	014f5023 	subu	t2,t2,t7

9d00915c <i5>:
9d00915c:	15400008 	bnez	t2,9d009180 <L8>
9d009160:	00000000 	nop
9d009164:	15200003 	bnez	t1,9d009174 <L9>
9d009168:	00000000 	nop
9d00916c:	1000000d 	b	9d0091a4 <L10>
9d009170:	240b0000 	li	t3,0

9d009174 <L9>:
9d009174:	01205025 	move	t2,t1
9d009178:	24090000 	li	t1,0
9d00917c:	256bffe0 	addiu	t3,t3,-32

9d009180 <L8>:
9d009180:	71484020 	clz	t0,t2
9d009184:	11000007 	beqz	t0,9d0091a4 <L10>
9d009188:	00000000 	nop
9d00918c:	01685823 	subu	t3,t3,t0
9d009190:	00082022 	neg	a0,t0
9d009194:	00892006 	srlv	a0,t1,a0
9d009198:	01094804 	sllv	t1,t1,t0
9d00919c:	010a5004 	sllv	t2,t2,t0
9d0091a0:	01445025 	or	t2,t2,a0

9d0091a4 <L10>:
9d0091a4:	01497825 	or	t7,t2,t1
9d0091a8:	15e00002 	bnez	t7,9d0091b4 <Bres>
9d0091ac:	00000000 	nop
9d0091b0:	24050000 	li	a1,0

9d0091b4 <Bres>:
9d0091b4:	19600068 	blez	t3,9d009358 <Bund>
9d0091b8:	00000000 	nop

9d0091bc <Blab8>:
9d0091bc:	25290400 	addiu	t1,t1,1024
9d0091c0:	2d2f0400 	sltiu	t7,t1,1024
9d0091c4:	014f5021 	addu	t2,t2,t7
9d0091c8:	014f782b 	sltu	t7,t2,t7
9d0091cc:	016f5821 	addu	t3,t3,t7
9d0091d0:	00097ac2 	srl	t7,t1,0xb
9d0091d4:	31ef0001 	andi	t7,t7,0x1
9d0091d8:	012f4823 	subu	t1,t1,t7
9d0091dc:	000922c2 	srl	a0,t1,0xb
9d0091e0:	000a7d40 	sll	t7,t2,0x15
9d0091e4:	008f2025 	or	a0,a0,t7
9d0091e8:	000a7840 	sll	t7,t2,0x1
9d0091ec:	000f7b02 	srl	t7,t7,0xc
9d0091f0:	00af2825 	or	a1,a1,t7
9d0091f4:	000b7d00 	sll	t7,t3,0x14
9d0091f8:	00af2825 	or	a1,a1,t7

9d0091fc <BretA>:
9d0091fc:	00041025 	or	v0,zero,a0
9d009200:	00051825 	or	v1,zero,a1

9d009204 <B999>:
9d009204:	03e00008 	jr	ra
9d009208:	00000000 	nop

9d00920c <BspecA>:
9d00920c:	0120782a 	slt	t7,t1,zero
9d009210:	01294821 	addu	t1,t1,t1
9d009214:	014a5021 	addu	t2,t2,t2
9d009218:	15600023 	bnez	t3,9d0092a8 <i7>
9d00921c:	014f5021 	addu	t2,t2,t7
9d009220:	01497825 	or	t7,t2,t1
9d009224:	11e00014 	beqz	t7,9d009278 <i8>
9d009228:	00000000 	nop
9d00922c:	15400008 	bnez	t2,9d009250 <L11>
9d009230:	00000000 	nop
9d009234:	15200003 	bnez	t1,9d009244 <L12>
9d009238:	00000000 	nop
9d00923c:	1000ff67 	b	9d008fdc <Blab1>
9d009240:	240b0000 	li	t3,0

9d009244 <L12>:
9d009244:	01205025 	move	t2,t1
9d009248:	24090000 	li	t1,0
9d00924c:	256bffe0 	addiu	t3,t3,-32

9d009250 <L11>:
9d009250:	71484020 	clz	t0,t2
9d009254:	1100ff61 	beqz	t0,9d008fdc <Blab1>
9d009258:	00000000 	nop
9d00925c:	01685823 	subu	t3,t3,t0
9d009260:	00082022 	neg	a0,t0
9d009264:	00892006 	srlv	a0,t1,a0
9d009268:	01094804 	sllv	t1,t1,t0
9d00926c:	010a5004 	sllv	t2,t2,t0
9d009270:	1000ff5a 	b	9d008fdc <Blab1>
9d009274:	01445025 	or	t2,t2,a0

9d009278 <i8>:
9d009278:	240107ff 	li	at,2047
9d00927c:	11c10015 	beq	t6,at,9d0092d4 <BspecB>
9d009280:	00000000 	nop
9d009284:	00e74021 	addu	t0,a3,a3
9d009288:	01067825 	or	t7,t0,a2
9d00928c:	15e00003 	bnez	t7,9d00929c <BretB>
9d009290:	00000000 	nop
9d009294:	04e0ffd9 	bltz	a3,9d0091fc <BretA>
9d009298:	00000000 	nop

9d00929c <BretB>:
9d00929c:	00061025 	or	v0,zero,a2
9d0092a0:	1000ffd8 	b	9d009204 <B999>
9d0092a4:	00071825 	or	v1,zero,a3

9d0092a8 <i7>:
9d0092a8:	01497825 	or	t7,t2,t1
9d0092ac:	15e00027 	bnez	t7,9d00934c <Bnan>
9d0092b0:	00000000 	nop
9d0092b4:	240107ff 	li	at,2047
9d0092b8:	15c1ffd0 	bne	t6,at,9d0091fc <BretA>
9d0092bc:	00000000 	nop
9d0092c0:	00a77826 	xor	t7,a1,a3
9d0092c4:	05e00021 	bltz	t7,9d00934c <Bnan>
9d0092c8:	00000000 	nop
9d0092cc:	1000fff3 	b	9d00929c <BretB>
9d0092d0:	00000000 	nop

9d0092d4 <BspecB>:
9d0092d4:	0180782a 	slt	t7,t4,zero
9d0092d8:	018c6021 	addu	t4,t4,t4
9d0092dc:	01ad6821 	addu	t5,t5,t5
9d0092e0:	15c00017 	bnez	t6,9d009340 <i11>
9d0092e4:	01af6821 	addu	t5,t5,t7
9d0092e8:	01ac7825 	or	t7,t5,t4
9d0092ec:	11e0ffc3 	beqz	t7,9d0091fc <BretA>
9d0092f0:	00000000 	nop
9d0092f4:	15a00008 	bnez	t5,9d009318 <L14>
9d0092f8:	00000000 	nop
9d0092fc:	15800003 	bnez	t4,9d00930c <L15>
9d009300:	00000000 	nop
9d009304:	1000ff39 	b	9d008fec <Blab2>
9d009308:	240e0000 	li	t6,0

9d00930c <L15>:
9d00930c:	01806825 	move	t5,t4
9d009310:	240c0000 	li	t4,0
9d009314:	25ceffe0 	addiu	t6,t6,-32

9d009318 <L14>:
9d009318:	71a84020 	clz	t0,t5
9d00931c:	1100ff33 	beqz	t0,9d008fec <Blab2>
9d009320:	00000000 	nop
9d009324:	01c87023 	subu	t6,t6,t0
9d009328:	00082022 	neg	a0,t0
9d00932c:	008c2006 	srlv	a0,t4,a0
9d009330:	010c6004 	sllv	t4,t4,t0
9d009334:	010d6804 	sllv	t5,t5,t0
9d009338:	1000ff2c 	b	9d008fec <Blab2>
9d00933c:	01a46825 	or	t5,t5,a0

9d009340 <i11>:
9d009340:	01ac7825 	or	t7,t5,t4
9d009344:	11e0ffd5 	beqz	t7,9d00929c <BretB>
9d009348:	00000000 	nop

9d00934c <Bnan>:
9d00934c:	3c05fff8 	lui	a1,0xfff8
9d009350:	1000ffaa 	b	9d0091fc <BretA>
9d009354:	24040000 	li	a0,0

9d009358 <Bund>:
9d009358:	24080001 	li	t0,1
9d00935c:	010b4023 	subu	t0,t0,t3

9d009360 <L17>:
9d009360:	2d010020 	sltiu	at,t0,32
9d009364:	14200007 	bnez	at,9d009384 <L18>
9d009368:	00000000 	nop
9d00936c:	2108ffe0 	addi	t0,t0,-32
9d009370:	0009302b 	sltu	a2,zero,t1
9d009374:	100a000d 	beq	zero,t2,9d0093ac <L19>
9d009378:	01464825 	or	t1,t2,a2
9d00937c:	1000fff8 	b	9d009360 <L17>
9d009380:	340a0000 	li	t2,0x0

9d009384 <L18>:
9d009384:	11000009 	beqz	t0,9d0093ac <L19>
9d009388:	00000000 	nop
9d00938c:	00082022 	neg	a0,t0
9d009390:	00893004 	sllv	a2,t1,a0
9d009394:	008a2004 	sllv	a0,t2,a0
9d009398:	01094806 	srlv	t1,t1,t0
9d00939c:	010a5006 	srlv	t2,t2,t0
9d0093a0:	10c00002 	beqz	a2,9d0093ac <L19>
9d0093a4:	00894825 	or	t1,a0,t1
9d0093a8:	35290002 	ori	t1,t1,0x2

9d0093ac <L19>:
9d0093ac:	1000ff83 	b	9d0091bc <Blab8>
9d0093b0:	240b0000 	li	t3,0
9d0093b4:	00000000 	nop

Disassembly of section .text:

9d0093b8 <NU32DIP_Startup>:
#include "nu32dip.h"

void NU32DIP_Startup() {
9d0093b8:	27bdfff8 	addiu	sp,sp,-8
9d0093bc:	afbf0004 	sw	ra,4(sp)
9d0093c0:	afbe0000 	sw	s8,0(sp)
9d0093c4:	03a0f025 	move	s8,sp
    __builtin_disable_interrupts(); // disable interrupts while initializing things
9d0093c8:	41626000 	di	v0
9d0093cc:	000000c0 	ehb
9d0093d0:	00000000 	nop

    // set the CP0 CONFIG register to indicate that kseg0 is cacheable (0x3)
    __builtin_mtc0(_CP0_CONFIG, _CP0_CONFIG_SELECT, 0xa4210583);
9d0093d4:	3c02a421 	lui	v0,0xa421
9d0093d8:	34420583 	ori	v0,v0,0x583
9d0093dc:	40828000 	mtc0	v0,c0_config
9d0093e0:	000000c0 	ehb

    // 0 data RAM access wait states
    BMXCONbits.BMXWSDRM = 0x0;
9d0093e4:	3c03bf88 	lui	v1,0xbf88
9d0093e8:	8c622000 	lw	v0,8192(v1)
9d0093ec:	7c023184 	ins	v0,zero,0x6,0x1
9d0093f0:	ac622000 	sw	v0,8192(v1)

    // enable multi vector interrupts
    INTCONbits.MVEC = 0x1;
9d0093f4:	3c03bf88 	lui	v1,0xbf88
9d0093f8:	8c621000 	lw	v0,4096(v1)
9d0093fc:	24040001 	li	a0,1
9d009400:	7c826304 	ins	v0,a0,0xc,0x1
9d009404:	ac621000 	sw	v0,4096(v1)

    // disable JTAG to get pins back
    DDPCONbits.JTAGEN = 0;
9d009408:	3c03bf81 	lui	v1,0xbf81
9d00940c:	9462f200 	lhu	v0,-3584(v1)
9d009410:	7c0218c4 	ins	v0,zero,0x3,0x1
9d009414:	a462f200 	sh	v0,-3584(v1)

    // do your TRIS and LAT commands here
    TRISBCLR = 0b110000; // B4 and B5 LEDs
9d009418:	3c02bf88 	lui	v0,0xbf88
9d00941c:	24030030 	li	v1,48
9d009420:	ac436114 	sw	v1,24852(v0)
    TRISASET = 0b010000; // A4 user button
9d009424:	3c02bf88 	lui	v0,0xbf88
9d009428:	24030010 	li	v1,16
9d00942c:	ac436018 	sw	v1,24600(v0)
    //NU32_LED1 = 1; // LED1 is off
    NU32DIP_YELLOW = 1;
9d009430:	3c03bf88 	lui	v1,0xbf88
9d009434:	94626130 	lhu	v0,24880(v1)
9d009438:	24040001 	li	a0,1
9d00943c:	7c822944 	ins	v0,a0,0x5,0x1
9d009440:	a4626130 	sh	v0,24880(v1)
    //NU32_LED2 = 0; // LED2 is on
    NU32DIP_GREEN = 0;
9d009444:	3c03bf88 	lui	v1,0xbf88
9d009448:	94626130 	lhu	v0,24880(v1)
9d00944c:	7c022104 	ins	v0,zero,0x4,0x1
9d009450:	a4626130 	sh	v0,24880(v1)

    //UART1 pins
    U1RXRbits.U1RXR = 0b0000; // Set A2 to U1RX
9d009454:	3c03bf81 	lui	v1,0xbf81
9d009458:	9062fa50 	lbu	v0,-1456(v1)
9d00945c:	7c021804 	ins	v0,zero,0x0,0x4
9d009460:	a062fa50 	sb	v0,-1456(v1)
    RPB3Rbits.RPB3R = 0b0001; // Set B3 to U1TX
9d009464:	3c03bf81 	lui	v1,0xbf81
9d009468:	9062fb38 	lbu	v0,-1224(v1)
9d00946c:	24040001 	li	a0,1
9d009470:	7c821804 	ins	v0,a0,0x0,0x4
9d009474:	a062fb38 	sb	v0,-1224(v1)

    // turn on UART1 without an interrupt
    U1MODEbits.BRGH = 0; // set baud to NU32_DESIRED_BAUD
9d009478:	3c03bf80 	lui	v1,0xbf80
9d00947c:	94626000 	lhu	v0,24576(v1)
9d009480:	7c0218c4 	ins	v0,zero,0x3,0x1
9d009484:	a4626000 	sh	v0,24576(v1)
    U1BRG = ((NU32DIP_SYS_FREQ / NU32DIP_DESIRED_BAUD) / 16) - 1;
9d009488:	3c02bf80 	lui	v0,0xbf80
9d00948c:	2403000c 	li	v1,12
9d009490:	ac436040 	sw	v1,24640(v0)

    // 8 bit, no parity bit, and 1 stop bit (8N1 setup)
    U1MODEbits.PDSEL = 0;
9d009494:	3c03bf80 	lui	v1,0xbf80
9d009498:	94626000 	lhu	v0,24576(v1)
9d00949c:	7c021044 	ins	v0,zero,0x1,0x2
9d0094a0:	a4626000 	sh	v0,24576(v1)
    U1MODEbits.STSEL = 0;
9d0094a4:	3c03bf80 	lui	v1,0xbf80
9d0094a8:	94626000 	lhu	v0,24576(v1)
9d0094ac:	7c020004 	ins	v0,zero,0x0,0x1
9d0094b0:	a4626000 	sh	v0,24576(v1)

    // configure TX & RX pins as output & input pins
    U1STAbits.UTXEN = 1;
9d0094b4:	3c03bf80 	lui	v1,0xbf80
9d0094b8:	8c626010 	lw	v0,24592(v1)
9d0094bc:	24040001 	li	a0,1
9d0094c0:	7c825284 	ins	v0,a0,0xa,0x1
9d0094c4:	ac626010 	sw	v0,24592(v1)
    U1STAbits.URXEN = 1;
9d0094c8:	3c03bf80 	lui	v1,0xbf80
9d0094cc:	8c626010 	lw	v0,24592(v1)
9d0094d0:	24040001 	li	a0,1
9d0094d4:	7c826304 	ins	v0,a0,0xc,0x1
9d0094d8:	ac626010 	sw	v0,24592(v1)
    // configure without hardware flow control
    U1MODEbits.UEN = 0;
9d0094dc:	3c03bf80 	lui	v1,0xbf80
9d0094e0:	94626000 	lhu	v0,24576(v1)
9d0094e4:	7c024a04 	ins	v0,zero,0x8,0x2
9d0094e8:	a4626000 	sh	v0,24576(v1)

    // enable the uart
    U1MODEbits.ON = 1;
9d0094ec:	3c03bf80 	lui	v1,0xbf80
9d0094f0:	94626000 	lhu	v0,24576(v1)
9d0094f4:	24040001 	li	a0,1
9d0094f8:	7c827bc4 	ins	v0,a0,0xf,0x1
9d0094fc:	a4626000 	sh	v0,24576(v1)

    __builtin_enable_interrupts();
9d009500:	41626020 	ei	v0
}
9d009504:	00000000 	nop
9d009508:	03c0e825 	move	sp,s8
9d00950c:	8fbf0004 	lw	ra,4(sp)
9d009510:	8fbe0000 	lw	s8,0(sp)
9d009514:	27bd0008 	addiu	sp,sp,8
9d009518:	03e00008 	jr	ra
9d00951c:	00000000 	nop

9d009520 <NU32DIP_ReadUART1>:

// Read from UART1
// block other functions until you get a '\r' or '\n'
// send the pointer to your char array and the number of elements in the array

void NU32DIP_ReadUART1(char * message, int maxLength) {
9d009520:	27bdffe8 	addiu	sp,sp,-24
9d009524:	afbe0014 	sw	s8,20(sp)
9d009528:	03a0f025 	move	s8,sp
9d00952c:	afc40018 	sw	a0,24(s8)
9d009530:	afc5001c 	sw	a1,28(s8)
    char data = 0;
9d009534:	a3c00008 	sb	zero,8(s8)
    int complete = 0, num_bytes = 0;
9d009538:	afc00000 	sw	zero,0(s8)
9d00953c:	afc00004 	sw	zero,4(s8)
    // loop until you get a '\r' or '\n'
    while (!complete) {
9d009540:	10000024 	b	9d0095d4 <NU32DIP_ReadUART1+0xb4>
9d009544:	00000000 	nop
        if (U1STAbits.URXDA) { // if data is available
9d009548:	3c02bf80 	lui	v0,0xbf80
9d00954c:	8c426010 	lw	v0,24592(v0)
9d009550:	7c420000 	ext	v0,v0,0x0,0x1
9d009554:	304200ff 	andi	v0,v0,0xff
9d009558:	1040001e 	beqz	v0,9d0095d4 <NU32DIP_ReadUART1+0xb4>
9d00955c:	00000000 	nop
            data = U1RXREG; // read the data
9d009560:	3c02bf80 	lui	v0,0xbf80
9d009564:	8c426030 	lw	v0,24624(v0)
9d009568:	a3c20008 	sb	v0,8(s8)
            if ((data == '\n') || (data == '\r')) {
9d00956c:	83c30008 	lb	v1,8(s8)
9d009570:	2402000a 	li	v0,10
9d009574:	10620005 	beq	v1,v0,9d00958c <NU32DIP_ReadUART1+0x6c>
9d009578:	00000000 	nop
9d00957c:	83c30008 	lb	v1,8(s8)
9d009580:	2402000d 	li	v0,13
9d009584:	14620005 	bne	v1,v0,9d00959c <NU32DIP_ReadUART1+0x7c>
9d009588:	00000000 	nop
                complete = 1;
9d00958c:	24020001 	li	v0,1
9d009590:	afc20000 	sw	v0,0(s8)
9d009594:	1000000f 	b	9d0095d4 <NU32DIP_ReadUART1+0xb4>
9d009598:	00000000 	nop
            } else {
                message[num_bytes] = data;
9d00959c:	8fc20004 	lw	v0,4(s8)
9d0095a0:	8fc30018 	lw	v1,24(s8)
9d0095a4:	00621021 	addu	v0,v1,v0
9d0095a8:	93c30008 	lbu	v1,8(s8)
9d0095ac:	a0430000 	sb	v1,0(v0)
                ++num_bytes;
9d0095b0:	8fc20004 	lw	v0,4(s8)
9d0095b4:	24420001 	addiu	v0,v0,1
9d0095b8:	afc20004 	sw	v0,4(s8)
                // roll over if the array is too small
                if (num_bytes >= maxLength) {
9d0095bc:	8fc30004 	lw	v1,4(s8)
9d0095c0:	8fc2001c 	lw	v0,28(s8)
9d0095c4:	0062102a 	slt	v0,v1,v0
9d0095c8:	14400002 	bnez	v0,9d0095d4 <NU32DIP_ReadUART1+0xb4>
9d0095cc:	00000000 	nop
                    num_bytes = 0;
9d0095d0:	afc00004 	sw	zero,4(s8)
    while (!complete) {
9d0095d4:	8fc20000 	lw	v0,0(s8)
9d0095d8:	1040ffdb 	beqz	v0,9d009548 <NU32DIP_ReadUART1+0x28>
9d0095dc:	00000000 	nop
                }
            }
        }
    }
    // end the string
    message[num_bytes] = '\0';
9d0095e0:	8fc20004 	lw	v0,4(s8)
9d0095e4:	8fc30018 	lw	v1,24(s8)
9d0095e8:	00621021 	addu	v0,v1,v0
9d0095ec:	a0400000 	sb	zero,0(v0)
}
9d0095f0:	00000000 	nop
9d0095f4:	03c0e825 	move	sp,s8
9d0095f8:	8fbe0014 	lw	s8,20(sp)
9d0095fc:	27bd0018 	addiu	sp,sp,24
9d009600:	03e00008 	jr	ra
9d009604:	00000000 	nop

9d009608 <NU32DIP_WriteUART1>:

// Write a character array using UART1

void NU32DIP_WriteUART1(const char * string) {
9d009608:	27bdfff8 	addiu	sp,sp,-8
9d00960c:	afbe0004 	sw	s8,4(sp)
9d009610:	03a0f025 	move	s8,sp
9d009614:	afc40008 	sw	a0,8(s8)
    while (*string != '\0') {
9d009618:	10000010 	b	9d00965c <NU32DIP_WriteUART1+0x54>
9d00961c:	00000000 	nop
        while (U1STAbits.UTXBF) {
9d009620:	00000000 	nop
9d009624:	3c02bf80 	lui	v0,0xbf80
9d009628:	8c426010 	lw	v0,24592(v0)
9d00962c:	7c420240 	ext	v0,v0,0x9,0x1
9d009630:	304200ff 	andi	v0,v0,0xff
9d009634:	1440fffb 	bnez	v0,9d009624 <NU32DIP_WriteUART1+0x1c>
9d009638:	00000000 	nop
            ; // wait until tx buffer isn't full
        }
        U1TXREG = *string;
9d00963c:	8fc20008 	lw	v0,8(s8)
9d009640:	80420000 	lb	v0,0(v0)
9d009644:	00401825 	move	v1,v0
9d009648:	3c02bf80 	lui	v0,0xbf80
9d00964c:	ac436020 	sw	v1,24608(v0)
        ++string;
9d009650:	8fc20008 	lw	v0,8(s8)
9d009654:	24420001 	addiu	v0,v0,1
9d009658:	afc20008 	sw	v0,8(s8)
    while (*string != '\0') {
9d00965c:	8fc20008 	lw	v0,8(s8)
9d009660:	80420000 	lb	v0,0(v0)
9d009664:	1440ffee 	bnez	v0,9d009620 <NU32DIP_WriteUART1+0x18>
9d009668:	00000000 	nop
    }
}
9d00966c:	00000000 	nop
9d009670:	03c0e825 	move	sp,s8
9d009674:	8fbe0004 	lw	s8,4(sp)
9d009678:	27bd0008 	addiu	sp,sp,8
9d00967c:	03e00008 	jr	ra
9d009680:	00000000 	nop

9d009684 <NU32DIP_Delay>:

void NU32DIP_Delay(int ms){
9d009684:	27bdffe8 	addiu	sp,sp,-24
9d009688:	afbf0014 	sw	ra,20(sp)
9d00968c:	afbe0010 	sw	s8,16(sp)
9d009690:	03a0f025 	move	s8,sp
9d009694:	afc40018 	sw	a0,24(s8)
    NU32DIP_DelayMicroseconds(ms*1000);
9d009698:	8fc30018 	lw	v1,24(s8)
9d00969c:	00601025 	move	v0,v1
9d0096a0:	00021140 	sll	v0,v0,0x5
9d0096a4:	00431023 	subu	v0,v0,v1
9d0096a8:	00021080 	sll	v0,v0,0x2
9d0096ac:	00431021 	addu	v0,v0,v1
9d0096b0:	000210c0 	sll	v0,v0,0x3
9d0096b4:	00402025 	move	a0,v0
9d0096b8:	0f4025b7 	jal	9d0096dc <NU32DIP_DelayMicroseconds>
9d0096bc:	00000000 	nop
}
9d0096c0:	00000000 	nop
9d0096c4:	03c0e825 	move	sp,s8
9d0096c8:	8fbf0014 	lw	ra,20(sp)
9d0096cc:	8fbe0010 	lw	s8,16(sp)
9d0096d0:	27bd0018 	addiu	sp,sp,24
9d0096d4:	03e00008 	jr	ra
9d0096d8:	00000000 	nop

9d0096dc <NU32DIP_DelayMicroseconds>:
void NU32DIP_DelayMicroseconds(int us){
9d0096dc:	27bdfff0 	addiu	sp,sp,-16
9d0096e0:	afbf000c 	sw	ra,12(sp)
9d0096e4:	afbe0008 	sw	s8,8(sp)
9d0096e8:	03a0f025 	move	s8,sp
9d0096ec:	afc40010 	sw	a0,16(s8)
    long endCycles = (NU32DIP_SYS_FREQ/(2000000))*us + _CP0_GET_COUNT(); // divide by 2 for every other clock cycle, divide by 1000000 for 1 us
9d0096f0:	8fc30010 	lw	v1,16(s8)
9d0096f4:	00601025 	move	v0,v1
9d0096f8:	00021040 	sll	v0,v0,0x1
9d0096fc:	00431021 	addu	v0,v0,v1
9d009700:	000210c0 	sll	v0,v0,0x3
9d009704:	00401825 	move	v1,v0
9d009708:	40024800 	mfc0	v0,c0_count
9d00970c:	00621021 	addu	v0,v1,v0
9d009710:	afc20000 	sw	v0,0(s8)
    while(_CP0_GET_COUNT() < endCycles){};
9d009714:	00000000 	nop
9d009718:	40034800 	mfc0	v1,c0_count
9d00971c:	8fc20000 	lw	v0,0(s8)
9d009720:	0062102b 	sltu	v0,v1,v0
9d009724:	1440fffc 	bnez	v0,9d009718 <NU32DIP_DelayMicroseconds+0x3c>
9d009728:	00000000 	nop
9d00972c:	00000000 	nop
9d009730:	03c0e825 	move	sp,s8
9d009734:	8fbf000c 	lw	ra,12(sp)
9d009738:	8fbe0008 	lw	s8,8(sp)
9d00973c:	27bd0010 	addiu	sp,sp,16
9d009740:	03e00008 	jr	ra
9d009744:	00000000 	nop

Disassembly of section .text.dp32mul:

9d009748 <__muldf3>:
9d009748:	00055040 000a5542 00054ac0 00047d42     @P..BU...J..B}..
9d009758:	012f4825 000442c0 3c0e8000 012e4825     %H/..B.....<%H..
9d009768:	00076840 000d6d42 000762c0 00067d42     @h..Bm...b..B}..
9d009778:	018f6025 00065ac0 018e6025 00a72826     %`...Z..%`..&(..
9d009788:	00ae2824 254fffff 2de107fe 10200047     $(....O%...-G. .
9d009798:	00000000                                ....

9d00979c <Clab1>:
9d00979c:	25afffff 	addiu	t7,t5,-1
9d0097a0:	2de107fe 	sltiu	at,t7,2046
9d0097a4:	1020006f 	beqz	at,9d009964 <CspecB>
9d0097a8:	00000000 	nop

9d0097ac <Clab2>:
9d0097ac:	25affc02 	addiu	t7,t5,-1022
9d0097b0:	014f5021 	addu	t2,t2,t7
9d0097b4:	012c0019 	multu	t1,t4
9d0097b8:	00003812 	mflo	a3
9d0097bc:	00007010 	mfhi	t6
9d0097c0:	010b0019 	multu	t0,t3
9d0097c4:	00002012 	mflo	a0
9d0097c8:	00003010 	mfhi	a2
9d0097cc:	012b0019 	multu	t1,t3
9d0097d0:	00005812 	mflo	t3
9d0097d4:	00006810 	mfhi	t5
9d0097d8:	00cb3021 	addu	a2,a2,t3
9d0097dc:	00cb782b 	sltu	t7,a2,t3
9d0097e0:	00ed3821 	addu	a3,a3,t5
9d0097e4:	00ef3821 	addu	a3,a3,t7
9d0097e8:	10ed0002 	beq	a3,t5,9d0097f4 <L20>
9d0097ec:	00000000 	nop
9d0097f0:	00ed782b 	sltu	t7,a3,t5

9d0097f4 <L20>:
9d0097f4:	01cf7021 	addu	t6,t6,t7
9d0097f8:	010c0019 	multu	t0,t4
9d0097fc:	00004012 	mflo	t0
9d009800:	00004810 	mfhi	t1
9d009804:	00c83021 	addu	a2,a2,t0
9d009808:	00c8782b 	sltu	t7,a2,t0
9d00980c:	00e93821 	addu	a3,a3,t1
9d009810:	00ef3821 	addu	a3,a3,t7
9d009814:	10e90002 	beq	a3,t1,9d009820 <L21>
9d009818:	00000000 	nop
9d00981c:	00e9782b 	sltu	t7,a3,t1

9d009820 <L21>:
9d009820:	01cf7021 	addu	t6,t6,t7
9d009824:	00867825 	or	t7,a0,a2
9d009828:	11e00002 	beqz	t7,9d009834 <i13>
9d00982c:	00000000 	nop
9d009830:	34e70001 	ori	a3,a3,0x1

9d009834 <i13>:
9d009834:	000e4825 	or	t1,zero,t6
9d009838:	05200006 	bltz	t1,9d009854 <i14>
9d00983c:	00074025 	or	t0,zero,a3
9d009840:	0100782a 	slt	t7,t0,zero
9d009844:	01084021 	addu	t0,t0,t0
9d009848:	01294821 	addu	t1,t1,t1
9d00984c:	012f4821 	addu	t1,t1,t7
9d009850:	254affff 	addiu	t2,t2,-1

9d009854 <i14>:
9d009854:	254fffff 	addiu	t7,t2,-1
9d009858:	2de107fe 	sltiu	at,t7,2046
9d00985c:	10200068 	beqz	at,9d009a00 <Coveund>
9d009860:	00000000 	nop
9d009864:	25080400 	addiu	t0,t0,1024
9d009868:	2d0f0400 	sltiu	t7,t0,1024
9d00986c:	012f4821 	addu	t1,t1,t7
9d009870:	012f782b 	sltu	t7,t1,t7
9d009874:	014f5021 	addu	t2,t2,t7

9d009878 <Clab8>:
9d009878:	00087ac2 	srl	t7,t0,0xb
9d00987c:	31ef0001 	andi	t7,t7,0x1
9d009880:	010f4023 	subu	t0,t0,t7
9d009884:	000822c2 	srl	a0,t0,0xb
9d009888:	00097d40 	sll	t7,t1,0x15
9d00988c:	008f2025 	or	a0,a0,t7
9d009890:	00097840 	sll	t7,t1,0x1
9d009894:	000f7b02 	srl	t7,t7,0xc
9d009898:	00af2825 	or	a1,a1,t7
9d00989c:	000a7d00 	sll	t7,t2,0x14
9d0098a0:	00af2825 	or	a1,a1,t7

9d0098a4 <Cret>:
9d0098a4:	00041025 	or	v0,zero,a0
9d0098a8:	00051825 	or	v1,zero,a1

9d0098ac <C999>:
9d0098ac:	03e00008 	jr	ra
9d0098b0:	00000000 	nop

9d0098b4 <CspecA>:
9d0098b4:	0100782a 	slt	t7,t0,zero
9d0098b8:	01084021 	addu	t0,t0,t0
9d0098bc:	01294821 	addu	t1,t1,t1
9d0098c0:	1540001c 	bnez	t2,9d009934 <i15>
9d0098c4:	012f4821 	addu	t1,t1,t7
9d0098c8:	01287825 	or	t7,t1,t0
9d0098cc:	11e00014 	beqz	t7,9d009920 <i16>
9d0098d0:	00000000 	nop
9d0098d4:	15200008 	bnez	t1,9d0098f8 <L22>
9d0098d8:	00000000 	nop
9d0098dc:	15000003 	bnez	t0,9d0098ec <L23>
9d0098e0:	00000000 	nop
9d0098e4:	1000ffad 	b	9d00979c <Clab1>
9d0098e8:	240a0000 	li	t2,0

9d0098ec <L23>:
9d0098ec:	01004825 	move	t1,t0
9d0098f0:	24080000 	li	t0,0
9d0098f4:	254affe0 	addiu	t2,t2,-32

9d0098f8 <L22>:
9d0098f8:	712e7020 	clz	t6,t1
9d0098fc:	11c0ffa7 	beqz	t6,9d00979c <Clab1>
9d009900:	00000000 	nop
9d009904:	014e5023 	subu	t2,t2,t6
9d009908:	000e3822 	neg	a3,t6
9d00990c:	00e83806 	srlv	a3,t0,a3
9d009910:	01c84004 	sllv	t0,t0,t6
9d009914:	01c94804 	sllv	t1,t1,t6
9d009918:	1000ffa0 	b	9d00979c <Clab1>
9d00991c:	01274825 	or	t1,t1,a3

9d009920 <i16>:
9d009920:	240107ff 	li	at,2047
9d009924:	11a10033 	beq	t5,at,9d0099f4 <Cnan>
9d009928:	00000000 	nop
9d00992c:	1000ffdd 	b	9d0098a4 <Cret>
9d009930:	00000000 	nop

9d009934 <i15>:
9d009934:	01287825 	or	t7,t1,t0
9d009938:	15e0002e 	bnez	t7,9d0099f4 <Cnan>
9d00993c:	00000000 	nop
9d009940:	15a00005 	bnez	t5,9d009958 <i17>
9d009944:	00000000 	nop
9d009948:	000c7840 	sll	t7,t4,0x1
9d00994c:	01eb7825 	or	t7,t7,t3
9d009950:	11e00028 	beqz	t7,9d0099f4 <Cnan>
9d009954:	00000000 	nop

9d009958 <i17>:
9d009958:	240107ff 	li	at,2047
9d00995c:	15a10021 	bne	t5,at,9d0099e4 <Cinf>
9d009960:	00000000 	nop

9d009964 <CspecB>:
9d009964:	0160782a 	slt	t7,t3,zero
9d009968:	016b5821 	addu	t3,t3,t3
9d00996c:	018c6021 	addu	t4,t4,t4
9d009970:	15a00019 	bnez	t5,9d0099d8 <i18>
9d009974:	018f6021 	addu	t4,t4,t7
9d009978:	018b7825 	or	t7,t4,t3
9d00997c:	11e00014 	beqz	t7,9d0099d0 <i19>
9d009980:	00000000 	nop
9d009984:	15800008 	bnez	t4,9d0099a8 <L25>
9d009988:	00000000 	nop
9d00998c:	15600003 	bnez	t3,9d00999c <L26>
9d009990:	00000000 	nop
9d009994:	1000ff85 	b	9d0097ac <Clab2>
9d009998:	240d0000 	li	t5,0

9d00999c <L26>:
9d00999c:	01606025 	move	t4,t3
9d0099a0:	240b0000 	li	t3,0
9d0099a4:	25adffe0 	addiu	t5,t5,-32

9d0099a8 <L25>:
9d0099a8:	71863020 	clz	a2,t4
9d0099ac:	10c0ff7f 	beqz	a2,9d0097ac <Clab2>
9d0099b0:	00000000 	nop
9d0099b4:	01a66823 	subu	t5,t5,a2
9d0099b8:	00067022 	neg	t6,a2
9d0099bc:	01cb7006 	srlv	t6,t3,t6
9d0099c0:	00cb5804 	sllv	t3,t3,a2
9d0099c4:	00cc6004 	sllv	t4,t4,a2
9d0099c8:	1000ff78 	b	9d0097ac <Clab2>
9d0099cc:	018e6025 	or	t4,t4,t6

9d0099d0 <i19>:
9d0099d0:	1000ffb4 	b	9d0098a4 <Cret>
9d0099d4:	24040000 	li	a0,0

9d0099d8 <i18>:
9d0099d8:	018b7825 	or	t7,t4,t3
9d0099dc:	15e00005 	bnez	t7,9d0099f4 <Cnan>
9d0099e0:	00000000 	nop

9d0099e4 <Cinf>:
9d0099e4:	3c017ff0 	lui	at,0x7ff0
9d0099e8:	00a12825 	or	a1,a1,at
9d0099ec:	1000ffad 	b	9d0098a4 <Cret>
9d0099f0:	24040000 	li	a0,0

9d0099f4 <Cnan>:
9d0099f4:	3c05fff8 	lui	a1,0xfff8
9d0099f8:	1000ffaa 	b	9d0098a4 <Cret>
9d0099fc:	24040000 	li	a0,0

9d009a00 <Coveund>:
9d009a00:	1d40fff8 	bgtz	t2,9d0099e4 <Cinf>
9d009a04:	00000000 	nop
9d009a08:	240e0001 	li	t6,1
9d009a0c:	01ca7023 	subu	t6,t6,t2

9d009a10 <L28>:
9d009a10:	2dc10020 	sltiu	at,t6,32
9d009a14:	14200007 	bnez	at,9d009a34 <L29>
9d009a18:	00000000 	nop
9d009a1c:	21ceffe0 	addi	t6,t6,-32
9d009a20:	0008302b 	sltu	a2,zero,t0
9d009a24:	1009000d 	beq	zero,t1,9d009a5c <L30>
9d009a28:	01264025 	or	t0,t1,a2
9d009a2c:	1000fff8 	b	9d009a10 <L28>
9d009a30:	34090000 	li	t1,0x0

9d009a34 <L29>:
9d009a34:	11c00009 	beqz	t6,9d009a5c <L30>
9d009a38:	00000000 	nop
9d009a3c:	000e3822 	neg	a3,t6
9d009a40:	00e83004 	sllv	a2,t0,a3
9d009a44:	00e93804 	sllv	a3,t1,a3
9d009a48:	01c84006 	srlv	t0,t0,t6
9d009a4c:	01c94806 	srlv	t1,t1,t6
9d009a50:	10c00002 	beqz	a2,9d009a5c <L30>
9d009a54:	00e84025 	or	t0,a3,t0
9d009a58:	35080002 	ori	t0,t0,0x2

9d009a5c <L30>:
9d009a5c:	25080400 	addiu	t0,t0,1024
9d009a60:	2d0f0400 	sltiu	t7,t0,1024
9d009a64:	012f4821 	addu	t1,t1,t7
9d009a68:	1000ff83 	b	9d009878 <Clab8>
9d009a6c:	000957c2 	srl	t2,t1,0x1f
9d009a70:	00000000 	nop

Disassembly of section .text:

9d009a74 <Ext0ISR>:
#include "nu32dip.h"          // constants, funcs for startup and UART
#include <stdbool.h>

volatile bool timing = false;

void __ISR(_EXTERNAL_0_VECTOR, IPL2SOFT) Ext0ISR(void) { // step 1: the ISR
9d009a74:	415de800 	rdpgpr	sp,sp
9d009a78:	401a7000 	mfc0	k0,c0_epc
9d009a7c:	401b6000 	mfc0	k1,c0_status
9d009a80:	27bdff68 	addiu	sp,sp,-152
9d009a84:	afba0094 	sw	k0,148(sp)
9d009a88:	401a6002 	mfc0	k0,c0_srsctl
9d009a8c:	afbb0090 	sw	k1,144(sp)
9d009a90:	afba008c 	sw	k0,140(sp)
9d009a94:	7c1b7844 	ins	k1,zero,0x1,0xf
9d009a98:	377b0800 	ori	k1,k1,0x800
9d009a9c:	409b6000 	mtc0	k1,c0_status
9d009aa0:	afbf007c 	sw	ra,124(sp)
9d009aa4:	afbe0078 	sw	s8,120(sp)
9d009aa8:	afb90074 	sw	t9,116(sp)
9d009aac:	afb80070 	sw	t8,112(sp)
9d009ab0:	afaf006c 	sw	t7,108(sp)
9d009ab4:	afae0068 	sw	t6,104(sp)
9d009ab8:	afad0064 	sw	t5,100(sp)
9d009abc:	afac0060 	sw	t4,96(sp)
9d009ac0:	afab005c 	sw	t3,92(sp)
9d009ac4:	afaa0058 	sw	t2,88(sp)
9d009ac8:	afa90054 	sw	t1,84(sp)
9d009acc:	afa80050 	sw	t0,80(sp)
9d009ad0:	afa7004c 	sw	a3,76(sp)
9d009ad4:	afa60048 	sw	a2,72(sp)
9d009ad8:	afa50044 	sw	a1,68(sp)
9d009adc:	afa40040 	sw	a0,64(sp)
9d009ae0:	afa3003c 	sw	v1,60(sp)
9d009ae4:	afa20038 	sw	v0,56(sp)
9d009ae8:	afa10034 	sw	at,52(sp)
9d009aec:	00001012 	mflo	v0
9d009af0:	afa20084 	sw	v0,132(sp)
9d009af4:	00001810 	mfhi	v1
9d009af8:	afa30080 	sw	v1,128(sp)
9d009afc:	03a0f025 	move	s8,sp

  NU32DIP_Delay(10); // wait 10ms
9d009b00:	2404000a 	li	a0,10
9d009b04:	0f4025a1 	jal	9d009684 <NU32DIP_Delay>
9d009b08:	00000000 	nop
  if(NU32DIP_USER == 0){
9d009b0c:	3c02bf88 	lui	v0,0xbf88
9d009b10:	8c426020 	lw	v0,24608(v0)
9d009b14:	7c420100 	ext	v0,v0,0x4,0x1
9d009b18:	304200ff 	andi	v0,v0,0xff
9d009b1c:	14400038 	bnez	v0,9d009c00 <Ext0ISR+0x18c>
9d009b20:	00000000 	nop

    if(timing){
9d009b24:	93828010 	lbu	v0,-32752(gp)
9d009b28:	304200ff 	andi	v0,v0,0xff
9d009b2c:	10400024 	beqz	v0,9d009bc0 <Ext0ISR+0x14c>
9d009b30:	00000000 	nop
      char buffer[30];
      sprintf(buffer, "%.3f seconds elapsed\r\n", _CP0_GET_COUNT()*2.0/NU32DIP_SYS_FREQ);
9d009b34:	40024800 	mfc0	v0,c0_count
9d009b38:	00402025 	move	a0,v0
9d009b3c:	0f402ba2 	jal	9d00ae88 <__floatunsidf>
9d009b40:	00000000 	nop
9d009b44:	00403025 	move	a2,v0
9d009b48:	00603825 	move	a3,v1
9d009b4c:	00402025 	move	a0,v0
9d009b50:	00602825 	move	a1,v1
9d009b54:	0f4023e4 	jal	9d008f90 <__adddf3>
9d009b58:	00000000 	nop
9d009b5c:	00402025 	move	a0,v0
9d009b60:	00602825 	move	a1,v1
9d009b64:	3c029d01 	lui	v0,0x9d01
9d009b68:	8c46a938 	lw	a2,-22216(v0)
9d009b6c:	8c47a93c 	lw	a3,-22212(v0)
9d009b70:	0f4022b4 	jal	9d008ad0 <__divdf3>
9d009b74:	00000000 	nop
9d009b78:	00403025 	move	a2,v0
9d009b7c:	00603825 	move	a3,v1
9d009b80:	3c029d01 	lui	v0,0x9d01
9d009b84:	2445a8b8 	addiu	a1,v0,-22344
9d009b88:	27c20010 	addiu	v0,s8,16
9d009b8c:	00402025 	move	a0,v0
9d009b90:	0f402c01 	jal	9d00b004 <_dsprintf_eEfFgGn>
9d009b94:	00000000 	nop
      NU32DIP_WriteUART1(buffer);
9d009b98:	27c20010 	addiu	v0,s8,16
9d009b9c:	00402025 	move	a0,v0
9d009ba0:	0f402582 	jal	9d009608 <NU32DIP_WriteUART1>
9d009ba4:	00000000 	nop
      NU32DIP_WriteUART1("Press the USER button again to start the timer\r\n");
9d009ba8:	3c029d01 	lui	v0,0x9d01
9d009bac:	2444a8d0 	addiu	a0,v0,-22320
9d009bb0:	0f402582 	jal	9d009608 <NU32DIP_WriteUART1>
9d009bb4:	00000000 	nop
9d009bb8:	10000008 	b	9d009bdc <Ext0ISR+0x168>
9d009bbc:	00000000 	nop

    }
    else{
      NU32DIP_WriteUART1("Press the USER button again to stop the timer\r\n");
9d009bc0:	3c029d01 	lui	v0,0x9d01
9d009bc4:	2444a904 	addiu	a0,v0,-22268
9d009bc8:	0f402582 	jal	9d009608 <NU32DIP_WriteUART1>
9d009bcc:	00000000 	nop
      _CP0_SET_COUNT(0);
9d009bd0:	00001025 	move	v0,zero
9d009bd4:	40824800 	mtc0	v0,c0_count
9d009bd8:	000000c0 	ehb
    }
    timing = !timing;
9d009bdc:	93828010 	lbu	v0,-32752(gp)
9d009be0:	304200ff 	andi	v0,v0,0xff
9d009be4:	0002102b 	sltu	v0,zero,v0
9d009be8:	304200ff 	andi	v0,v0,0xff
9d009bec:	38420001 	xori	v0,v0,0x1
9d009bf0:	304200ff 	andi	v0,v0,0xff
9d009bf4:	30420001 	andi	v0,v0,0x1
9d009bf8:	304200ff 	andi	v0,v0,0xff
9d009bfc:	a3828010 	sb	v0,-32752(gp)
  }
  IFS0bits.INT0IF = 0;            // clear interrupt flag IFS0<3>
9d009c00:	3c03bf88 	lui	v1,0xbf88
9d009c04:	8c621030 	lw	v0,4144(v1)
9d009c08:	7c0218c4 	ins	v0,zero,0x3,0x1
9d009c0c:	ac621030 	sw	v0,4144(v1)
}
9d009c10:	00000000 	nop
9d009c14:	03c0e825 	move	sp,s8
9d009c18:	8fa20084 	lw	v0,132(sp)
9d009c1c:	00400013 	mtlo	v0
9d009c20:	8fa30080 	lw	v1,128(sp)
9d009c24:	00600011 	mthi	v1
9d009c28:	8fbf007c 	lw	ra,124(sp)
9d009c2c:	8fbe0078 	lw	s8,120(sp)
9d009c30:	8fb90074 	lw	t9,116(sp)
9d009c34:	8fb80070 	lw	t8,112(sp)
9d009c38:	8faf006c 	lw	t7,108(sp)
9d009c3c:	8fae0068 	lw	t6,104(sp)
9d009c40:	8fad0064 	lw	t5,100(sp)
9d009c44:	8fac0060 	lw	t4,96(sp)
9d009c48:	8fab005c 	lw	t3,92(sp)
9d009c4c:	8faa0058 	lw	t2,88(sp)
9d009c50:	8fa90054 	lw	t1,84(sp)
9d009c54:	8fa80050 	lw	t0,80(sp)
9d009c58:	8fa7004c 	lw	a3,76(sp)
9d009c5c:	8fa60048 	lw	a2,72(sp)
9d009c60:	8fa50044 	lw	a1,68(sp)
9d009c64:	8fa40040 	lw	a0,64(sp)
9d009c68:	8fa3003c 	lw	v1,60(sp)
9d009c6c:	8fa20038 	lw	v0,56(sp)
9d009c70:	8fa10034 	lw	at,52(sp)
9d009c74:	41606000 	di
9d009c78:	000000c0 	ehb
9d009c7c:	8fba0094 	lw	k0,148(sp)
9d009c80:	8fbb0090 	lw	k1,144(sp)
9d009c84:	409a7000 	mtc0	k0,c0_epc
9d009c88:	8fba008c 	lw	k0,140(sp)
9d009c8c:	27bd0098 	addiu	sp,sp,152
9d009c90:	409a6002 	mtc0	k0,c0_srsctl
9d009c94:	41dde800 	wrpgpr	sp,sp
9d009c98:	409b6000 	mtc0	k1,c0_status
9d009c9c:	42000018 	eret

9d009ca0 <main>:

int main(void) {
9d009ca0:	27bdffe8 	addiu	sp,sp,-24
9d009ca4:	afbf0014 	sw	ra,20(sp)
9d009ca8:	afbe0010 	sw	s8,16(sp)
9d009cac:	03a0f025 	move	s8,sp
  NU32DIP_Startup(); // cache on, min flash wait, interrupts on, LED/button init, UART init
9d009cb0:	0f4024ee 	jal	9d0093b8 <NU32DIP_Startup>
9d009cb4:	00000000 	nop
  __builtin_disable_interrupts(); // step 2: disable interrupts
9d009cb8:	41626000 	di	v0
9d009cbc:	000000c0 	ehb
9d009cc0:	00000000 	nop
  INTCONbits.INT0EP = 0;          // step 3: INT0 triggers on falling edge
9d009cc4:	3c03bf88 	lui	v1,0xbf88
9d009cc8:	8c621000 	lw	v0,4096(v1)
9d009ccc:	7c020004 	ins	v0,zero,0x0,0x1
9d009cd0:	ac621000 	sw	v0,4096(v1)
  IPC0bits.INT0IP = 2;            // step 4: interrupt priority 2
9d009cd4:	3c03bf88 	lui	v1,0xbf88
9d009cd8:	8c621090 	lw	v0,4240(v1)
9d009cdc:	24040002 	li	a0,2
9d009ce0:	7c82e684 	ins	v0,a0,0x1a,0x3
9d009ce4:	ac621090 	sw	v0,4240(v1)
  IPC0bits.INT0IS = 1;            // step 4: interrupt [sub]priority 1
9d009ce8:	3c03bf88 	lui	v1,0xbf88
9d009cec:	8c621090 	lw	v0,4240(v1)
9d009cf0:	24040001 	li	a0,1
9d009cf4:	7c82ce04 	ins	v0,a0,0x18,0x2
9d009cf8:	ac621090 	sw	v0,4240(v1)
  IFS0bits.INT0IF = 0;            // step 5: clear the int flag
9d009cfc:	3c03bf88 	lui	v1,0xbf88
9d009d00:	8c621030 	lw	v0,4144(v1)
9d009d04:	7c0218c4 	ins	v0,zero,0x3,0x1
9d009d08:	ac621030 	sw	v0,4144(v1)
  IEC0bits.INT0IE = 1;            // step 6: enable INT0 by setting IEC0<3>
9d009d0c:	3c03bf88 	lui	v1,0xbf88
9d009d10:	8c621060 	lw	v0,4192(v1)
9d009d14:	24040001 	li	a0,1
9d009d18:	7c8218c4 	ins	v0,a0,0x3,0x1
9d009d1c:	ac621060 	sw	v0,4192(v1)
  __builtin_enable_interrupts();  // step 7: enable interrupts
9d009d20:	41626020 	ei	v0
                                  // Connect RD7 (USER button) to INT0 (RD0)

  NU32DIP_WriteUART1("Press the USER button again to start the timer\r\n");
9d009d24:	3c029d01 	lui	v0,0x9d01
9d009d28:	2444a8d0 	addiu	a0,v0,-22320
9d009d2c:	0f402582 	jal	9d009608 <NU32DIP_WriteUART1>
9d009d30:	00000000 	nop

  while(1) {
9d009d34:	1000ffff 	b	9d009d34 <main+0x94>
9d009d38:	00000000 	nop

Disassembly of section .text.__pop_int:

9d009d3c <__pop_int>:
9d009d3c:	24020088 	li	v0,136
9d009d40:	10a2003f 	beq	a1,v0,9d009e40 <__pop_int+0x104>
9d009d44:	28a20089 	slti	v0,a1,137
9d009d48:	1040001a 	beqz	v0,9d009db4 <__pop_int+0x78>
9d009d4c:	24020081 	li	v0,129
9d009d50:	10a20054 	beq	a1,v0,9d009ea4 <__pop_int+0x168>
9d009d54:	28a20082 	slti	v0,a1,130
9d009d58:	10400005 	beqz	v0,9d009d70 <__pop_int+0x34>
9d009d5c:	24020080 	li	v0,128
9d009d60:	50a20051 	beql	a1,v0,9d009ea8 <__pop_int+0x16c>
9d009d64:	8ce20000 	lw	v0,0(a3)
9d009d68:	03e00008 	jr	ra
9d009d6c:	00001025 	move	v0,zero
9d009d70:	24020082 	li	v0,130
9d009d74:	50a2003b 	beql	a1,v0,9d009e64 <__pop_int+0x128>
9d009d78:	8ce20000 	lw	v0,0(a3)
9d009d7c:	24020084 	li	v0,132
9d009d80:	14a2fff9 	bne	a1,v0,9d009d68 <__pop_int+0x2c>
9d009d84:	00000000 	nop
9d009d88:	8ce20000 	lw	v0,0(a3)
9d009d8c:	24430004 	addiu	v1,v0,4
9d009d90:	8c420000 	lw	v0,0(v0)
9d009d94:	10c00027 	beqz	a2,9d009e34 <__pop_int+0xf8>
9d009d98:	ace30000 	sw	v1,0(a3)
9d009d9c:	7c021620 	seh	v0,v0
9d009da0:	ac820000 	sw	v0,0(a0)
9d009da4:	000217c3 	sra	v0,v0,0x1f
9d009da8:	ac820004 	sw	v0,4(a0)
9d009dac:	03e00008 	jr	ra
9d009db0:	24020001 	li	v0,1
9d009db4:	240200a0 	li	v0,160
9d009db8:	50a20036 	beql	a1,v0,9d009e94 <__pop_int+0x158>
9d009dbc:	8ce20000 	lw	v0,0(a3)
9d009dc0:	28a200a1 	slti	v0,a1,161
9d009dc4:	10400010 	beqz	v0,9d009e08 <__pop_int+0xcc>
9d009dc8:	24020090 	li	v0,144
9d009dcc:	14a2ffe6 	bne	a1,v0,9d009d68 <__pop_int+0x2c>
9d009dd0:	00000000 	nop
9d009dd4:	8ce20000 	lw	v0,0(a3)
9d009dd8:	24420007 	addiu	v0,v0,7
9d009ddc:	7c021004 	ins	v0,zero,0x0,0x3
9d009de0:	8c480000 	lw	t0,0(v0)
9d009de4:	8c490004 	lw	t1,4(v0)
9d009de8:	24420008 	addiu	v0,v0,8
9d009dec:	ace20000 	sw	v0,0(a3)
9d009df0:	ac880000 	sw	t0,0(a0)
9d009df4:	ac890004 	sw	t1,4(a0)
9d009df8:	10c00001 	beqz	a2,9d009e00 <__pop_int+0xc4>
9d009dfc:	24020001 	li	v0,1
9d009e00:	03e00008 	jr	ra
9d009e04:	00000000 	nop
9d009e08:	240200c0 	li	v0,192
9d009e0c:	50a20005 	beql	a1,v0,9d009e24 <__pop_int+0xe8>
9d009e10:	8ce20000 	lw	v0,0(a3)
9d009e14:	240200f0 	li	v0,240
9d009e18:	14a2ffd3 	bne	a1,v0,9d009d68 <__pop_int+0x2c>
9d009e1c:	00000000 	nop
9d009e20:	8ce20000 	lw	v0,0(a3)
9d009e24:	24430004 	addiu	v1,v0,4
9d009e28:	ace30000 	sw	v1,0(a3)
9d009e2c:	10000002 	b	9d009e38 <__pop_int+0xfc>
9d009e30:	8c420000 	lw	v0,0(v0)
9d009e34:	3042ffff 	andi	v0,v0,0xffff
9d009e38:	10000020 	b	9d009ebc <__pop_int+0x180>
9d009e3c:	ac820000 	sw	v0,0(a0)
9d009e40:	8ce20000 	lw	v0,0(a3)
9d009e44:	24430004 	addiu	v1,v0,4
9d009e48:	8c420000 	lw	v0,0(v0)
9d009e4c:	10c00003 	beqz	a2,9d009e5c <__pop_int+0x120>
9d009e50:	ace30000 	sw	v1,0(a3)
9d009e54:	1000ffd2 	b	9d009da0 <__pop_int+0x64>
9d009e58:	7c021420 	seb	v0,v0
9d009e5c:	1000fff6 	b	9d009e38 <__pop_int+0xfc>
9d009e60:	304200ff 	andi	v0,v0,0xff
9d009e64:	24420007 	addiu	v0,v0,7
9d009e68:	7c021004 	ins	v0,zero,0x0,0x3
9d009e6c:	8c480000 	lw	t0,0(v0)
9d009e70:	8c490004 	lw	t1,4(v0)
9d009e74:	24420008 	addiu	v0,v0,8
9d009e78:	ace20000 	sw	v0,0(a3)
9d009e7c:	ac880000 	sw	t0,0(a0)
9d009e80:	ac890004 	sw	t1,4(a0)
9d009e84:	10c0ffde 	beqz	a2,9d009e00 <__pop_int+0xc4>
9d009e88:	24020001 	li	v0,1
9d009e8c:	03e00008 	jr	ra
9d009e90:	00000000 	nop
9d009e94:	24430004 	addiu	v1,v0,4
9d009e98:	ace30000 	sw	v1,0(a3)
9d009e9c:	1000ffc0 	b	9d009da0 <__pop_int+0x64>
9d009ea0:	8c420000 	lw	v0,0(v0)
9d009ea4:	8ce20000 	lw	v0,0(a3)
9d009ea8:	24430004 	addiu	v1,v0,4
9d009eac:	ace30000 	sw	v1,0(a3)
9d009eb0:	8c420000 	lw	v0,0(v0)
9d009eb4:	14c0ffbb 	bnez	a2,9d009da4 <__pop_int+0x68>
9d009eb8:	ac820000 	sw	v0,0(a0)
9d009ebc:	1000ffbb 	b	9d009dac <__pop_int+0x70>
9d009ec0:	ac800004 	sw	zero,4(a0)

Disassembly of section .text.dpcmp:

9d009ec4 <__eqdf2>:
9d009ec4:	2409fffe 00055040 00075840 01645825     ...$@P..@X..%Xd.
9d009ed4:	01665825 014b5025 15400003 00000000     %Xf.%PK...@.....
9d009ee4:	1000003c 24020000                       <......$

9d009eec <i56>:
9d009eec:	10800002 	beqz	a0,9d009ef8 <i57>
9d009ef0:	00054040 	sll	t0,a1,0x1
9d009ef4:	25080001 	addiu	t0,t0,1

9d009ef8 <i57>:
9d009ef8:	3c01ffe0 	lui	at,0xffe0
9d009efc:	34210001 	ori	at,at,0x1
9d009f00:	0101082b 	sltu	at,t0,at
9d009f04:	10200037 	beqz	at,9d009fe4 <Lnan>
9d009f08:	00000000 	nop
9d009f0c:	10c00002 	beqz	a2,9d009f18 <i58>
9d009f10:	00074040 	sll	t0,a3,0x1
9d009f14:	25080001 	addiu	t0,t0,1

9d009f18 <i58>:
9d009f18:	3c01ffe0 	lui	at,0xffe0
9d009f1c:	34210001 	ori	at,at,0x1
9d009f20:	0101082b 	sltu	at,t0,at
9d009f24:	1020002f 	beqz	at,9d009fe4 <Lnan>
9d009f28:	00000000 	nop
9d009f2c:	04a10016 	bgez	a1,9d009f88 <i59>
9d009f30:	00000000 	nop
9d009f34:	04e00003 	bltz	a3,9d009f44 <i60>
9d009f38:	00000000 	nop
9d009f3c:	10000026 	b	9d009fd8 <L999>
9d009f40:	2402ffff 	li	v0,-1

9d009f44 <i60>:
9d009f44:	0086502b 	sltu	t2,a0,a2
9d009f48:	00862023 	subu	a0,a0,a2
9d009f4c:	00aa582b 	sltu	t3,a1,t2
9d009f50:	00aa2823 	subu	a1,a1,t2
9d009f54:	00a7502b 	sltu	t2,a1,a3
9d009f58:	014b5025 	or	t2,t2,t3
9d009f5c:	11400003 	beqz	t2,9d009f6c <i61>
9d009f60:	00a72823 	subu	a1,a1,a3
9d009f64:	1000001c 	b	9d009fd8 <L999>
9d009f68:	24020001 	li	v0,1

9d009f6c <i61>:
9d009f6c:	00a45025 	or	t2,a1,a0
9d009f70:	11400003 	beqz	t2,9d009f80 <i62>
9d009f74:	00000000 	nop
9d009f78:	10000017 	b	9d009fd8 <L999>
9d009f7c:	2402ffff 	li	v0,-1

9d009f80 <i62>:
9d009f80:	10000015 	b	9d009fd8 <L999>
9d009f84:	24020000 	li	v0,0

9d009f88 <i59>:
9d009f88:	04e10003 	bgez	a3,9d009f98 <i63>
9d009f8c:	00000000 	nop
9d009f90:	10000011 	b	9d009fd8 <L999>
9d009f94:	24020001 	li	v0,1

9d009f98 <i63>:
9d009f98:	0086502b 	sltu	t2,a0,a2
9d009f9c:	00862023 	subu	a0,a0,a2
9d009fa0:	00aa582b 	sltu	t3,a1,t2
9d009fa4:	00aa2823 	subu	a1,a1,t2
9d009fa8:	00a7502b 	sltu	t2,a1,a3
9d009fac:	014b5025 	or	t2,t2,t3
9d009fb0:	11400003 	beqz	t2,9d009fc0 <i64>
9d009fb4:	00a72823 	subu	a1,a1,a3
9d009fb8:	10000007 	b	9d009fd8 <L999>
9d009fbc:	2402ffff 	li	v0,-1

9d009fc0 <i64>:
9d009fc0:	00a45025 	or	t2,a1,a0
9d009fc4:	11400003 	beqz	t2,9d009fd4 <i65>
9d009fc8:	00000000 	nop
9d009fcc:	10000002 	b	9d009fd8 <L999>
9d009fd0:	24020001 	li	v0,1

9d009fd4 <i65>:
9d009fd4:	24020000 	li	v0,0

9d009fd8 <L999>:
9d009fd8:	03e00008 	jr	ra
9d009fdc:	00000000 	nop
9d009fe0:	00000000 	nop

9d009fe4 <Lnan>:
9d009fe4:	1000fffc 	b	9d009fd8 <L999>
9d009fe8:	00091025 	or	v0,zero,t1
9d009fec:	00000000 	nop

Disassembly of section .text.dfcmplt:

9d009ff0 <dpcmplt>:
9d009ff0:	2409fffe 	li	t1,-2
9d009ff4:	00055040 	sll	t2,a1,0x1
9d009ff8:	00075840 	sll	t3,a3,0x1
9d009ffc:	01645825 	or	t3,t3,a0
9d00a000:	01665825 	or	t3,t3,a2
9d00a004:	014b5025 	or	t2,t2,t3
9d00a008:	15400003 	bnez	t2,9d00a018 <dpcmplt+0x28>
9d00a00c:	00000000 	nop
9d00a010:	1000003c 	b	9d00a104 <dpcmplt+0x114>
9d00a014:	24020000 	li	v0,0
9d00a018:	10800002 	beqz	a0,9d00a024 <dpcmplt+0x34>
9d00a01c:	00054040 	sll	t0,a1,0x1
9d00a020:	25080001 	addiu	t0,t0,1
9d00a024:	3c01ffe0 	lui	at,0xffe0
9d00a028:	34210001 	ori	at,at,0x1
9d00a02c:	0101082b 	sltu	at,t0,at
9d00a030:	10200037 	beqz	at,9d00a110 <dpcmplt+0x120>
9d00a034:	00000000 	nop
9d00a038:	10c00002 	beqz	a2,9d00a044 <dpcmplt+0x54>
9d00a03c:	00074040 	sll	t0,a3,0x1
9d00a040:	25080001 	addiu	t0,t0,1
9d00a044:	3c01ffe0 	lui	at,0xffe0
9d00a048:	34210001 	ori	at,at,0x1
9d00a04c:	0101082b 	sltu	at,t0,at
9d00a050:	1020002f 	beqz	at,9d00a110 <dpcmplt+0x120>
9d00a054:	00000000 	nop
9d00a058:	04a10016 	bgez	a1,9d00a0b4 <dpcmplt+0xc4>
9d00a05c:	00000000 	nop
9d00a060:	04e00003 	bltz	a3,9d00a070 <dpcmplt+0x80>
9d00a064:	00000000 	nop
9d00a068:	10000026 	b	9d00a104 <dpcmplt+0x114>
9d00a06c:	2402ffff 	li	v0,-1
9d00a070:	0086502b 	sltu	t2,a0,a2
9d00a074:	00862023 	subu	a0,a0,a2
9d00a078:	00aa582b 	sltu	t3,a1,t2
9d00a07c:	00aa2823 	subu	a1,a1,t2
9d00a080:	00a7502b 	sltu	t2,a1,a3
9d00a084:	014b5025 	or	t2,t2,t3
9d00a088:	11400003 	beqz	t2,9d00a098 <dpcmplt+0xa8>
9d00a08c:	00a72823 	subu	a1,a1,a3
9d00a090:	1000001c 	b	9d00a104 <dpcmplt+0x114>
9d00a094:	24020001 	li	v0,1
9d00a098:	00a45025 	or	t2,a1,a0
9d00a09c:	11400003 	beqz	t2,9d00a0ac <dpcmplt+0xbc>
9d00a0a0:	00000000 	nop
9d00a0a4:	10000017 	b	9d00a104 <dpcmplt+0x114>
9d00a0a8:	2402ffff 	li	v0,-1
9d00a0ac:	10000015 	b	9d00a104 <dpcmplt+0x114>
9d00a0b0:	24020000 	li	v0,0
9d00a0b4:	04e10003 	bgez	a3,9d00a0c4 <dpcmplt+0xd4>
9d00a0b8:	00000000 	nop
9d00a0bc:	10000011 	b	9d00a104 <dpcmplt+0x114>
9d00a0c0:	24020001 	li	v0,1
9d00a0c4:	0086502b 	sltu	t2,a0,a2
9d00a0c8:	00862023 	subu	a0,a0,a2
9d00a0cc:	00aa582b 	sltu	t3,a1,t2
9d00a0d0:	00aa2823 	subu	a1,a1,t2
9d00a0d4:	00a7502b 	sltu	t2,a1,a3
9d00a0d8:	014b5025 	or	t2,t2,t3
9d00a0dc:	11400003 	beqz	t2,9d00a0ec <dpcmplt+0xfc>
9d00a0e0:	00a72823 	subu	a1,a1,a3
9d00a0e4:	10000007 	b	9d00a104 <dpcmplt+0x114>
9d00a0e8:	2402ffff 	li	v0,-1
9d00a0ec:	00a45025 	or	t2,a1,a0
9d00a0f0:	11400003 	beqz	t2,9d00a100 <dpcmplt+0x110>
9d00a0f4:	00000000 	nop
9d00a0f8:	10000002 	b	9d00a104 <dpcmplt+0x114>
9d00a0fc:	24020001 	li	v0,1
9d00a100:	24020000 	li	v0,0
9d00a104:	03e00008 	jr	ra
9d00a108:	00000000 	nop
9d00a10c:	00000000 	nop
9d00a110:	1000fffc 	b	9d00a104 <dpcmplt+0x114>
9d00a114:	34020001 	li	v0,0x1
9d00a118:	00000000 	nop

Disassembly of section .text:

9d00a11c <dpfloor>:
9d00a11c:	3c018000 00a13024 00053840 00073d42     ...<$0..@8..B=..
9d00a12c:	240107ff 10e1002b 00000000 24090433     ...$+.......3..$
9d00a13c:	01273823 2ce10035 1420000b 00000000     #8'.5..,.. .....
9d00a14c:	04e00020 00000000 10c0002d 00000000      .......-.......
9d00a15c:	00054840 01244825 15200026 00000000     @H..%H$.&. .....
9d00a16c:	10000027 00000000                       '.......

9d00a174 <i1>:
9d00a174:	10c00005 	beqz	a2,9d00a18c <i3>
9d00a178:	00000000 	nop
9d00a17c:	0004482b 	sltu	t1,zero,a0
9d00a180:	00042023 	negu	a0,a0
9d00a184:	00052823 	negu	a1,a1
9d00a188:	00a92823 	subu	a1,a1,t1

9d00a18c <i3>:
9d00a18c:	30e9001f 	andi	t1,a3,0x1f
9d00a190:	24080001 	li	t0,1
9d00a194:	01284004 	sllv	t0,t0,t1
9d00a198:	00084023 	negu	t0,t0
9d00a19c:	2ce10020 	sltiu	at,a3,32
9d00a1a0:	14200004 	bnez	at,9d00a1b4 <i4>
9d00a1a4:	00000000 	nop
9d00a1a8:	24040000 	li	a0,0
9d00a1ac:	10000002 	b	9d00a1b8 <e4>
9d00a1b0:	00a82824 	and	a1,a1,t0

9d00a1b4 <i4>:
9d00a1b4:	00882024 	and	a0,a0,t0

9d00a1b8 <e4>:
9d00a1b8:	10c00005 	beqz	a2,9d00a1d0 <Aret>
9d00a1bc:	00000000 	nop
9d00a1c0:	0004482b 	sltu	t1,zero,a0
9d00a1c4:	00042023 	negu	a0,a0
9d00a1c8:	00052823 	negu	a1,a1
9d00a1cc:	00a92823 	subu	a1,a1,t1

9d00a1d0 <Aret>:
9d00a1d0:	00041025 	or	v0,zero,a0
9d00a1d4:	00051825 	or	v1,zero,a1

9d00a1d8 <A999>:
9d00a1d8:	03e00008 	jr	ra
9d00a1dc:	00000000 	nop

9d00a1e0 <Aspec>:
9d00a1e0:	3c01000f 	lui	at,0xf
9d00a1e4:	3421ffff 	ori	at,at,0xffff
9d00a1e8:	00a14824 	and	t1,a1,at
9d00a1ec:	01244825 	or	t1,t1,a0
9d00a1f0:	15200009 	bnez	t1,9d00a218 <Anan>
9d00a1f4:	00000000 	nop
9d00a1f8:	1000fff5 	b	9d00a1d0 <Aret>
9d00a1fc:	00000000 	nop

9d00a200 <Amin1>:
9d00a200:	3c05bff0 	lui	a1,0xbff0
9d00a204:	1000fff2 	b	9d00a1d0 <Aret>
9d00a208:	24040000 	li	a0,0

9d00a20c <Azer>:
9d00a20c:	00062825 	or	a1,zero,a2
9d00a210:	1000ffef 	b	9d00a1d0 <Aret>
9d00a214:	24040000 	li	a0,0

9d00a218 <Anan>:
9d00a218:	3c05fff8 	lui	a1,0xfff8
9d00a21c:	1000ffec 	b	9d00a1d0 <Aret>
9d00a220:	24040000 	li	a0,0

Disassembly of section .text.__pad:

9d00a224 <__pad>:
9d00a224:	27bdffc0 	addiu	sp,sp,-64
9d00a228:	afb3002c 	sw	s3,44(sp)
9d00a22c:	8fb30050 	lw	s3,80(sp)
9d00a230:	afb60038 	sw	s6,56(sp)
9d00a234:	afb40030 	sw	s4,48(sp)
9d00a238:	32730001 	andi	s3,s3,0x1
9d00a23c:	afb20028 	sw	s2,40(sp)
9d00a240:	afb10024 	sw	s1,36(sp)
9d00a244:	afb00020 	sw	s0,32(sp)
9d00a248:	afbf003c 	sw	ra,60(sp)
9d00a24c:	afb50034 	sw	s5,52(sp)
9d00a250:	00809025 	move	s2,a0
9d00a254:	00a0b025 	move	s6,a1
9d00a258:	00c08025 	move	s0,a2
9d00a25c:	00e08825 	move	s1,a3
9d00a260:	16600003 	bnez	s3,9d00a270 <__pad+0x4c>
9d00a264:	00c7a02b 	sltu	s4,a2,a3
9d00a268:	56800013 	bnezl	s4,9d00a2b8 <__pad+0x94>
9d00a26c:	0230a023 	subu	s4,s1,s0
9d00a270:	02003025 	move	a2,s0
9d00a274:	02c02825 	move	a1,s6
9d00a278:	0f402b04 	jal	9d00ac10 <__out>
9d00a27c:	02402025 	move	a0,s2
9d00a280:	1680000d 	bnez	s4,9d00a2b8 <__pad+0x94>
9d00a284:	0230a023 	subu	s4,s1,s0
9d00a288:	02008825 	move	s1,s0
9d00a28c:	8fbf003c 	lw	ra,60(sp)
9d00a290:	02201025 	move	v0,s1
9d00a294:	8fb60038 	lw	s6,56(sp)
9d00a298:	8fb50034 	lw	s5,52(sp)
9d00a29c:	8fb40030 	lw	s4,48(sp)
9d00a2a0:	8fb3002c 	lw	s3,44(sp)
9d00a2a4:	8fb20028 	lw	s2,40(sp)
9d00a2a8:	8fb10024 	lw	s1,36(sp)
9d00a2ac:	8fb00020 	lw	s0,32(sp)
9d00a2b0:	03e00008 	jr	ra
9d00a2b4:	27bd0040 	addiu	sp,sp,64
9d00a2b8:	2e860011 	sltiu	a2,s4,17
9d00a2bc:	24020010 	li	v0,16
9d00a2c0:	0286100b 	movn	v0,s4,a2
9d00a2c4:	00403025 	move	a2,v0
9d00a2c8:	24050020 	li	a1,32
9d00a2cc:	27a40010 	addiu	a0,sp,16
9d00a2d0:	0f402c15 	jal	9d00b054 <memset>
9d00a2d4:	0280a825 	move	s5,s4
9d00a2d8:	2ea20010 	sltiu	v0,s5,16
9d00a2dc:	1040000b 	beqz	v0,9d00a30c <__pad+0xe8>
9d00a2e0:	3286000f 	andi	a2,s4,0xf
9d00a2e4:	27a50010 	addiu	a1,sp,16
9d00a2e8:	0f402b04 	jal	9d00ac10 <__out>
9d00a2ec:	02402025 	move	a0,s2
9d00a2f0:	1660ffe6 	bnez	s3,9d00a28c <__pad+0x68>
9d00a2f4:	02003025 	move	a2,s0
9d00a2f8:	02c02825 	move	a1,s6
9d00a2fc:	0f402b04 	jal	9d00ac10 <__out>
9d00a300:	02402025 	move	a0,s2
9d00a304:	1000ffe2 	b	9d00a290 <__pad+0x6c>
9d00a308:	8fbf003c 	lw	ra,60(sp)
9d00a30c:	24060010 	li	a2,16
9d00a310:	27a50010 	addiu	a1,sp,16
9d00a314:	0f402b04 	jal	9d00ac10 <__out>
9d00a318:	02402025 	move	a0,s2
9d00a31c:	1000ffee 	b	9d00a2d8 <__pad+0xb4>
9d00a320:	26b5fff0 	addiu	s5,s5,-16

Disassembly of section .text.dptofp:

9d00a324 <__truncdfsf2>:
9d00a324:	00053ac0 00045d42 00eb3825 000432c0     .:..B]..%8...2..
9d00a334:	3c018000 00e13825 3c018000 00a14824     ...<%8.....<$H..
9d00a344:	00054040 00084542 2508fc80 250bffff     @@..BE.....%...%
9d00a354:	2d6100fe 10200012 00000000              ..a-.. .....

9d00a360 <Hlab1>:
9d00a360:	10c00002 	beqz	a2,9d00a36c <i45>
9d00a364:	00000000 	nop
9d00a368:	34e70001 	ori	a3,a3,0x1

9d00a36c <i45>:
9d00a36c:	24e70080 	addiu	a3,a3,128
9d00a370:	2ceb0080 	sltiu	t3,a3,128
9d00a374:	010b4021 	addu	t0,t0,t3
9d00a378:	00075a02 	srl	t3,a3,0x8
9d00a37c:	316b0001 	andi	t3,t3,0x1
9d00a380:	00eb3823 	subu	a3,a3,t3
9d00a384:	00073840 	sll	a3,a3,0x1
9d00a388:	00073a42 	srl	a3,a3,0x9
9d00a38c:	00085dc0 	sll	t3,t0,0x17
9d00a390:	00eb3825 	or	a3,a3,t3
9d00a394:	00e91025 	or	v0,a3,t1

9d00a398 <H999>:
9d00a398:	03e00008 	jr	ra
9d00a39c:	00000000 	nop
9d00a3a0:	00000000 	nop

9d00a3a4 <Hspec>:
9d00a3a4:	2401047f 	li	at,1151
9d00a3a8:	15010007 	bne	t0,at,9d00a3c8 <i46>
9d00a3ac:	00000000 	nop
9d00a3b0:	00075840 	sll	t3,a3,0x1
9d00a3b4:	01665825 	or	t3,t3,a2
9d00a3b8:	11600003 	beqz	t3,9d00a3c8 <i46>
9d00a3bc:	00000000 	nop
9d00a3c0:	1000fff5 	b	9d00a398 <H999>
9d00a3c4:	3c02ffc0 	lui	v0,0xffc0

9d00a3c8 <i46>:
9d00a3c8:	290100ff 	slti	at,t0,255
9d00a3cc:	14200004 	bnez	at,9d00a3e0 <i48>
9d00a3d0:	00000000 	nop
9d00a3d4:	3c017f80 	lui	at,0x7f80
9d00a3d8:	1000ffef 	b	9d00a398 <H999>
9d00a3dc:	01211025 	or	v0,t1,at

9d00a3e0 <i48>:
9d00a3e0:	240a0001 	li	t2,1
9d00a3e4:	01485023 	subu	t2,t2,t0
9d00a3e8:	2d410020 	sltiu	at,t2,32
9d00a3ec:	14200003 	bnez	at,9d00a3fc <i49>
9d00a3f0:	00000000 	nop
9d00a3f4:	1000ffe8 	b	9d00a398 <H999>
9d00a3f8:	00091025 	or	v0,zero,t1

9d00a3fc <i49>:
9d00a3fc:	240c0020 	li	t4,32
9d00a400:	018a6023 	subu	t4,t4,t2
9d00a404:	01875804 	sllv	t3,a3,t4
9d00a408:	00cb3025 	or	a2,a2,t3
9d00a40c:	01473806 	srlv	a3,a3,t2
9d00a410:	24080000 	li	t0,0
9d00a414:	3c018000 	lui	at,0x8000
9d00a418:	1000ffd1 	b	9d00a360 <Hlab1>
9d00a41c:	00e13825 	or	a3,a3,at
9d00a420:	00000000 	nop

Disassembly of section .text.scalbn:

9d00a424 <scalbn>:
9d00a424:	27bdffe0 	addiu	sp,sp,-32
9d00a428:	afb10014 	sw	s1,20(sp)
9d00a42c:	00c08825 	move	s1,a2
9d00a430:	28c60400 	slti	a2,a2,1024
9d00a434:	afbf001c 	sw	ra,28(sp)
9d00a438:	afb20018 	sw	s2,24(sp)
9d00a43c:	14c0001f 	bnez	a2,9d00a4bc <scalbn+0x98>
9d00a440:	afb00010 	sw	s0,16(sp)
9d00a444:	3c129d00 	lui	s2,0x9d00
9d00a448:	8e4674f8 	lw	a2,29944(s2)
9d00a44c:	8e4774fc 	lw	a3,29948(s2)
9d00a450:	0f4025d2 	jal	9d009748 <__muldf3>
9d00a454:	2630fc01 	addiu	s0,s1,-1023
9d00a458:	2a040400 	slti	a0,s0,1024
9d00a45c:	14800009 	bnez	a0,9d00a484 <scalbn+0x60>
9d00a460:	8e4674f8 	lw	a2,29944(s2)
9d00a464:	8e4774fc 	lw	a3,29948(s2)
9d00a468:	00402025 	move	a0,v0
9d00a46c:	00602825 	move	a1,v1
9d00a470:	0f4025d2 	jal	9d009748 <__muldf3>
9d00a474:	2630f802 	addiu	s0,s1,-2046
9d00a478:	2a050400 	slti	a1,s0,1024
9d00a47c:	240403ff 	li	a0,1023
9d00a480:	0085800a 	movz	s0,a0,a1
9d00a484:	261003ff 	addiu	s0,s0,1023
9d00a488:	00102500 	sll	a0,s0,0x14
9d00a48c:	00002825 	move	a1,zero
9d00a490:	00a03025 	move	a2,a1
9d00a494:	00803825 	move	a3,a0
9d00a498:	00602825 	move	a1,v1
9d00a49c:	0f4025d2 	jal	9d009748 <__muldf3>
9d00a4a0:	00402025 	move	a0,v0
9d00a4a4:	8fbf001c 	lw	ra,28(sp)
9d00a4a8:	8fb20018 	lw	s2,24(sp)
9d00a4ac:	8fb10014 	lw	s1,20(sp)
9d00a4b0:	8fb00010 	lw	s0,16(sp)
9d00a4b4:	03e00008 	jr	ra
9d00a4b8:	27bd0020 	addiu	sp,sp,32
9d00a4bc:	2a26fc02 	slti	a2,s1,-1022
9d00a4c0:	00801025 	move	v0,a0
9d00a4c4:	00a01825 	move	v1,a1
9d00a4c8:	10c0ffee 	beqz	a2,9d00a484 <scalbn+0x60>
9d00a4cc:	02208025 	move	s0,s1
9d00a4d0:	3c129d00 	lui	s2,0x9d00
9d00a4d4:	8e467500 	lw	a2,29952(s2)
9d00a4d8:	8e477504 	lw	a3,29956(s2)
9d00a4dc:	0f4025d2 	jal	9d009748 <__muldf3>
9d00a4e0:	263003c9 	addiu	s0,s1,969
9d00a4e4:	2a04fc02 	slti	a0,s0,-1022
9d00a4e8:	1080ffe6 	beqz	a0,9d00a484 <scalbn+0x60>
9d00a4ec:	8e467500 	lw	a2,29952(s2)
9d00a4f0:	8e477504 	lw	a3,29956(s2)
9d00a4f4:	00402025 	move	a0,v0
9d00a4f8:	00602825 	move	a1,v1
9d00a4fc:	0f4025d2 	jal	9d009748 <__muldf3>
9d00a500:	26300792 	addiu	s0,s1,1938
9d00a504:	2a05fc02 	slti	a1,s0,-1022
9d00a508:	2404fc02 	li	a0,-1022
9d00a50c:	1000ffdd 	b	9d00a484 <scalbn+0x60>
9d00a510:	0085800b 	movn	s0,a0,a1

Disassembly of section .text.__pop_ptr:

9d00a514 <__pop_ptr>:
9d00a514:	24020084 	li	v0,132
9d00a518:	50a20022 	beql	a1,v0,9d00a5a4 <__pop_ptr+0x90>
9d00a51c:	8ce20000 	lw	v0,0(a3)
9d00a520:	28a20085 	slti	v0,a1,133
9d00a524:	10400010 	beqz	v0,9d00a568 <__pop_ptr+0x54>
9d00a528:	24020081 	li	v0,129
9d00a52c:	50a20008 	beql	a1,v0,9d00a550 <__pop_ptr+0x3c>
9d00a530:	8ce20000 	lw	v0,0(a3)
9d00a534:	24020082 	li	v0,130
9d00a538:	50a20027 	beql	a1,v0,9d00a5d8 <__pop_ptr+0xc4>
9d00a53c:	8ce20000 	lw	v0,0(a3)
9d00a540:	24020080 	li	v0,128
9d00a544:	14a20010 	bne	a1,v0,9d00a588 <__pop_ptr+0x74>
9d00a548:	00000000 	nop
9d00a54c:	8ce20000 	lw	v0,0(a3)
9d00a550:	24430004 	addiu	v1,v0,4
9d00a554:	ace30000 	sw	v1,0(a3)
9d00a558:	8c420000 	lw	v0,0(v0)
9d00a55c:	ac820000 	sw	v0,0(a0)
9d00a560:	10000015 	b	9d00a5b8 <__pop_ptr+0xa4>
9d00a564:	ac460000 	sw	a2,0(v0)
9d00a568:	24020090 	li	v0,144
9d00a56c:	50a2001a 	beql	a1,v0,9d00a5d8 <__pop_ptr+0xc4>
9d00a570:	8ce20000 	lw	v0,0(a3)
9d00a574:	28a20091 	slti	v0,a1,145
9d00a578:	10400005 	beqz	v0,9d00a590 <__pop_ptr+0x7c>
9d00a57c:	24020088 	li	v0,136
9d00a580:	50a2000f 	beql	a1,v0,9d00a5c0 <__pop_ptr+0xac>
9d00a584:	8ce20000 	lw	v0,0(a3)
9d00a588:	03e00008 	jr	ra
9d00a58c:	00001025 	move	v0,zero
9d00a590:	240200a0 	li	v0,160
9d00a594:	50a2ffee 	beql	a1,v0,9d00a550 <__pop_ptr+0x3c>
9d00a598:	8ce20000 	lw	v0,0(a3)
9d00a59c:	1000ffe9 	b	9d00a544 <__pop_ptr+0x30>
9d00a5a0:	240200c0 	li	v0,192
9d00a5a4:	24430004 	addiu	v1,v0,4
9d00a5a8:	ace30000 	sw	v1,0(a3)
9d00a5ac:	8c420000 	lw	v0,0(v0)
9d00a5b0:	ac820000 	sw	v0,0(a0)
9d00a5b4:	a4460000 	sh	a2,0(v0)
9d00a5b8:	03e00008 	jr	ra
9d00a5bc:	24020001 	li	v0,1
9d00a5c0:	24430004 	addiu	v1,v0,4
9d00a5c4:	ace30000 	sw	v1,0(a3)
9d00a5c8:	8c420000 	lw	v0,0(v0)
9d00a5cc:	ac820000 	sw	v0,0(a0)
9d00a5d0:	1000fff9 	b	9d00a5b8 <__pop_ptr+0xa4>
9d00a5d4:	a0460000 	sb	a2,0(v0)
9d00a5d8:	24430004 	addiu	v1,v0,4
9d00a5dc:	ace30000 	sw	v1,0(a3)
9d00a5e0:	8c420000 	lw	v0,0(v0)
9d00a5e4:	ac820000 	sw	v0,0(a0)
9d00a5e8:	ac460000 	sw	a2,0(v0)
9d00a5ec:	000637c3 	sra	a2,a2,0x1f
9d00a5f0:	1000fff1 	b	9d00a5b8 <__pop_ptr+0xa4>
9d00a5f4:	ac460004 	sw	a2,4(v0)

Disassembly of section .text.general_exception:

9d00a5f8 <_general_exception_context>:
9d00a5f8:	27bdffa8 	addiu	sp,sp,-88
9d00a5fc:	afa10004 	sw	at,4(sp)
9d00a600:	afa20008 	sw	v0,8(sp)
9d00a604:	afa3000c 	sw	v1,12(sp)
9d00a608:	afa40010 	sw	a0,16(sp)
9d00a60c:	afa50014 	sw	a1,20(sp)
9d00a610:	afa60018 	sw	a2,24(sp)
9d00a614:	afa7001c 	sw	a3,28(sp)
9d00a618:	afa80020 	sw	t0,32(sp)
9d00a61c:	afa90024 	sw	t1,36(sp)
9d00a620:	afaa0028 	sw	t2,40(sp)
9d00a624:	afab002c 	sw	t3,44(sp)
9d00a628:	afac0030 	sw	t4,48(sp)
9d00a62c:	afad0034 	sw	t5,52(sp)
9d00a630:	afae0038 	sw	t6,56(sp)
9d00a634:	afaf003c 	sw	t7,60(sp)
9d00a638:	afb80040 	sw	t8,64(sp)
9d00a63c:	afb90044 	sw	t9,68(sp)
9d00a640:	afbf0048 	sw	ra,72(sp)
9d00a644:	00004012 	mflo	t0
9d00a648:	afa8004c 	sw	t0,76(sp)
9d00a64c:	00004010 	mfhi	t0
9d00a650:	afa80050 	sw	t0,80(sp)
9d00a654:	3c1a9d01 	lui	k0,0x9d01
9d00a658:	275aadb4 	addiu	k0,k0,-21068
9d00a65c:	00000000 	nop
9d00a660:	40046800 	mfc0	a0,c0_cause
9d00a664:	40056000 	mfc0	a1,c0_status
9d00a668:	0340f809 	jalr	k0
9d00a66c:	00000000 	nop
9d00a670:	8fa80050 	lw	t0,80(sp)
9d00a674:	01000011 	mthi	t0
9d00a678:	8fa8004c 	lw	t0,76(sp)
9d00a67c:	01000013 	mtlo	t0
9d00a680:	8fa10004 	lw	at,4(sp)
9d00a684:	8fa20008 	lw	v0,8(sp)
9d00a688:	8fa3000c 	lw	v1,12(sp)
9d00a68c:	8fa40010 	lw	a0,16(sp)
9d00a690:	8fa50014 	lw	a1,20(sp)
9d00a694:	8fa60018 	lw	a2,24(sp)
9d00a698:	8fa7001c 	lw	a3,28(sp)
9d00a69c:	8fa80020 	lw	t0,32(sp)
9d00a6a0:	8fa90024 	lw	t1,36(sp)
9d00a6a4:	8faa0028 	lw	t2,40(sp)
9d00a6a8:	8fab002c 	lw	t3,44(sp)
9d00a6ac:	8fac0030 	lw	t4,48(sp)
9d00a6b0:	8fad0034 	lw	t5,52(sp)
9d00a6b4:	8fae0038 	lw	t6,56(sp)
9d00a6b8:	8faf003c 	lw	t7,60(sp)
9d00a6bc:	8fb80040 	lw	t8,64(sp)
9d00a6c0:	8fb90044 	lw	t9,68(sp)
9d00a6c4:	8fbf0048 	lw	ra,72(sp)
9d00a6c8:	27bd0058 	addiu	sp,sp,88
9d00a6cc:	000000c0 	ehb
9d00a6d0:	42000018 	eret

Disassembly of section .text.fptodp:

9d00a6d4 <__extendsfdf2>:
9d00a6d4:	00043dc2 30e700ff 3c018000 00813024     .=.....0...<$0..
9d00a6e4:	24e9ffff 2d2100fe 1020000d 00000000     ...$..!-.. .....

9d00a6f4 <Glab1>:
9d00a6f4:	24e70380 	addiu	a3,a3,896
9d00a6f8:	00044a40 	sll	t1,a0,0x9
9d00a6fc:	00094b02 	srl	t1,t1,0xc
9d00a700:	00c93025 	or	a2,a2,t1
9d00a704:	00042f40 	sll	a1,a0,0x1d

9d00a708 <Gret>:
9d00a708:	00074d00 	sll	t1,a3,0x14
9d00a70c:	00c93025 	or	a2,a2,t1
9d00a710:	00051025 	or	v0,zero,a1
9d00a714:	00061825 	or	v1,zero,a2

9d00a718 <G999>:
9d00a718:	03e00008 	jr	ra
9d00a71c:	00000000 	nop
9d00a720:	00000000 	nop

9d00a724 <Gspec>:
9d00a724:	24050000 	li	a1,0
9d00a728:	00842021 	addu	a0,a0,a0
9d00a72c:	1080fff6 	beqz	a0,9d00a708 <Gret>
9d00a730:	00000000 	nop
9d00a734:	14e00009 	bnez	a3,9d00a75c <i42>
9d00a738:	00000000 	nop

9d00a73c <b43>:
9d00a73c:	24e7ffff 	addiu	a3,a3,-1
9d00a740:	00842021 	addu	a0,a0,a0
9d00a744:	3c010080 	lui	at,0x80
9d00a748:	0081082b 	sltu	at,a0,at
9d00a74c:	1420fffb 	bnez	at,9d00a73c <b43>
9d00a750:	00000000 	nop
9d00a754:	1000ffe7 	b	9d00a6f4 <Glab1>
9d00a758:	00000000 	nop

9d00a75c <i42>:
9d00a75c:	240707ff 	li	a3,2047
9d00a760:	3c01ff00 	lui	at,0xff00
9d00a764:	34210001 	ori	at,at,0x1
9d00a768:	0081082b 	sltu	at,a0,at
9d00a76c:	1420ffe6 	bnez	at,9d00a708 <Gret>
9d00a770:	00000000 	nop
9d00a774:	1000ffe4 	b	9d00a708 <Gret>
9d00a778:	3c06fff8 	lui	a2,0xfff8
9d00a77c:	00000000 	nop

Disassembly of section .text.normalize:

9d00a780 <normalize>:
9d00a780:	27bdffe0 	addiu	sp,sp,-32
9d00a784:	afb10018 	sw	s1,24(sp)
9d00a788:	00078d02 	srl	s1,a3,0x14
9d00a78c:	322507ff 	andi	a1,s1,0x7ff
9d00a790:	afb00014 	sw	s0,20(sp)
9d00a794:	afbf001c 	sw	ra,28(sp)
9d00a798:	00808025 	move	s0,a0
9d00a79c:	00c01025 	move	v0,a2
9d00a7a0:	14a0000e 	bnez	a1,9d00a7dc <normalize+0x5c>
9d00a7a4:	00e02025 	move	a0,a3
9d00a7a8:	3c029d00 	lui	v0,0x9d00
9d00a7ac:	00c04025 	move	t0,a2
9d00a7b0:	00e01825 	move	v1,a3
9d00a7b4:	8c4674d8 	lw	a2,29912(v0)
9d00a7b8:	8c4774dc 	lw	a3,29916(v0)
9d00a7bc:	01002025 	move	a0,t0
9d00a7c0:	0f4025d2 	jal	9d009748 <__muldf3>
9d00a7c4:	00602825 	move	a1,v1
9d00a7c8:	00602025 	move	a0,v1
9d00a7cc:	7c635500 	ext	v1,v1,0x14,0xb
9d00a7d0:	10600002 	beqz	v1,9d00a7dc <normalize+0x5c>
9d00a7d4:	24050800 	li	a1,2048
9d00a7d8:	2465ffc1 	addiu	a1,v1,-63
9d00a7dc:	000237c2 	srl	a2,v0,0x1f
9d00a7e0:	00041840 	sll	v1,a0,0x1
9d00a7e4:	00021040 	sll	v0,v0,0x1
9d00a7e8:	00c31825 	or	v1,a2,v1
9d00a7ec:	8fbf001c 	lw	ra,28(sp)
9d00a7f0:	ae020000 	sw	v0,0(s0)
9d00a7f4:	7c63a000 	ext	v1,v1,0x0,0x15
9d00a7f8:	3c020020 	lui	v0,0x20
9d00a7fc:	00431825 	or	v1,v0,v1
9d00a800:	32310800 	andi	s1,s1,0x800
9d00a804:	24a5fbcc 	addiu	a1,a1,-1076
9d00a808:	ae11000c 	sw	s1,12(s0)
9d00a80c:	02001025 	move	v0,s0
9d00a810:	ae030004 	sw	v1,4(s0)
9d00a814:	ae050008 	sw	a1,8(s0)
9d00a818:	8fb10018 	lw	s1,24(sp)
9d00a81c:	8fb00014 	lw	s0,20(sp)
9d00a820:	03e00008 	jr	ra
9d00a824:	27bd0020 	addiu	sp,sp,32

Disassembly of section .text.dptoli:

9d00a828 <__fixdfsi>:
9d00a828:	00053ac0 00045542 00ea3825 3c018000     .:..BU..%8.....<
9d00a838:	00e13825 00055040 000a5542 2406041e     %8..@P..BU.....$
9d00a848:	00ca3023 18c0000c 00000000 2cc10020     #0.......... ..,
9d00a858:	14200002 00000000 34070000              .. ........4

9d00a864 <L42>:
9d00a864:	04a10002 	bgez	a1,9d00a870 <i50>
9d00a868:	00c73806 	srlv	a3,a3,a2
9d00a86c:	00073823 	negu	a3,a3

9d00a870 <i50>:
9d00a870:	00071025 	or	v0,zero,a3

9d00a874 <I999>:
9d00a874:	03e00008 	jr	ra
9d00a878:	00000000 	nop
9d00a87c:	00000000 	nop

9d00a880 <Inaninf>:
9d00a880:	10800002 	beqz	a0,9d00a88c <i51>
9d00a884:	00000000 	nop
9d00a888:	34a50001 	ori	a1,a1,0x1

9d00a88c <i51>:
9d00a88c:	3c017ff0 	lui	at,0x7ff0
9d00a890:	34210001 	ori	at,at,0x1
9d00a894:	00a1082b 	sltu	at,a1,at
9d00a898:	14200003 	bnez	at,9d00a8a8 <i52>
9d00a89c:	00000000 	nop
9d00a8a0:	1000fff4 	b	9d00a874 <I999>
9d00a8a4:	3c028000 	lui	v0,0x8000

9d00a8a8 <i52>:
9d00a8a8:	3c027fff 	lui	v0,0x7fff
9d00a8ac:	1000fff1 	b	9d00a874 <I999>
9d00a8b0:	3442ffff 	ori	v0,v0,0xffff
9d00a8b4:	00000000 	nop

Disassembly of section .rodata:

9d00a8b8 <.rodata>:
9d00a8b8:	66332e25 	0x66332e25
9d00a8bc:	63657320 	0x63657320
9d00a8c0:	73646e6f 	0x73646e6f
9d00a8c4:	616c6520 	0x616c6520
9d00a8c8:	64657370 	0x64657370
9d00a8cc:	00000a0d 	break	0x0,0x28
9d00a8d0:	73657250 	udi0	k1,a1,t6,0x9
9d00a8d4:	68742073 	0x68742073
9d00a8d8:	53552065 	beql	k0,s5,9d012a70 <__fmt_s+0x78b4>
9d00a8dc:	62205245 	0x62205245
9d00a8e0:	6f747475 	0x6f747475
9d00a8e4:	6761206e 	0x6761206e
9d00a8e8:	206e6961 	addi	t6,v1,26977
9d00a8ec:	73206f74 	0x73206f74
9d00a8f0:	74726174 	jalx	91c985d0 <_bmxdudba_address+0x91c885d0>
9d00a8f4:	65687420 	0x65687420
9d00a8f8:	6d697420 	0x6d697420
9d00a8fc:	0a0d7265 	j	9835c994 <_bmxdudba_address+0x9834c994>
9d00a900:	0c000000 	jal	90000000 <_bmxdudba_address+0x8fff0000>
9d00a904:	73657250 	udi0	k1,a1,t6,0x9
9d00a908:	68742073 	0x68742073
9d00a90c:	53552065 	beql	k0,s5,9d012aa4 <__fmt_s+0x78e8>
9d00a910:	62205245 	0x62205245
9d00a914:	6f747475 	0x6f747475
9d00a918:	6761206e 	0x6761206e
9d00a91c:	206e6961 	addi	t6,v1,26977
9d00a920:	73206f74 	0x73206f74
9d00a924:	20706f74 	addi	s0,v1,28532
9d00a928:	20656874 	addi	a1,v1,26740
9d00a92c:	656d6974 	0x656d6974
9d00a930:	000a0d72 	tlt	zero,t2,0x35
	...
9d00a93c:	4186e360 	0x4186e360

Disassembly of section .text.__vsnprintf:

9d00a940 <__vsnprintf>:
9d00a940:	27bdffc8 	addiu	sp,sp,-56
9d00a944:	2403ffff 	li	v1,-1
9d00a948:	afa30010 	sw	v1,16(sp)
9d00a94c:	24030102 	li	v1,258
9d00a950:	00a01025 	move	v0,a1
9d00a954:	afbf0034 	sw	ra,52(sp)
9d00a958:	00c02825 	move	a1,a2
9d00a95c:	afa30014 	sw	v1,20(sp)
9d00a960:	14800002 	bnez	a0,9d00a96c <__vsnprintf+0x2c>
9d00a964:	00e03025 	move	a2,a3
9d00a968:	27a4002c 	addiu	a0,sp,44
9d00a96c:	afa40018 	sw	a0,24(sp)
9d00a970:	afa2001c 	sw	v0,28(sp)
9d00a974:	10400002 	beqz	v0,9d00a980 <__vsnprintf+0x40>
9d00a978:	00001825 	move	v1,zero
9d00a97c:	2443ffff 	addiu	v1,v0,-1
9d00a980:	04410008 	bgez	v0,9d00a9a4 <__vsnprintf+0x64>
9d00a984:	afa30020 	sw	v1,32(sp)
9d00a988:	3c02a000 	lui	v0,0xa000
9d00a98c:	2403004f 	li	v1,79
9d00a990:	ac430004 	sw	v1,4(v0)
9d00a994:	2402ffff 	li	v0,-1
9d00a998:	8fbf0034 	lw	ra,52(sp)
9d00a99c:	03e00008 	jr	ra
9d00a9a0:	27bd0038 	addiu	sp,sp,56
9d00a9a4:	afa40028 	sw	a0,40(sp)
9d00a9a8:	afa40024 	sw	a0,36(sp)
9d00a9ac:	a0800000 	sb	zero,0(a0)
9d00a9b0:	0f402bb2 	jal	9d00aec8 <__vfprintf>
9d00a9b4:	27a40010 	addiu	a0,sp,16
9d00a9b8:	1000fff8 	b	9d00a99c <__vsnprintf+0x5c>
9d00a9bc:	8fbf0034 	lw	ra,52(sp)

Disassembly of section .text:

9d00a9c0 <__dinit_copy>:
9d00a9c0:	03e00008 	jr	ra
9d00a9c4:	00000000 	nop

9d00a9c8 <__pic32_data_init>:
9d00a9c8:	03e01825 	move	v1,ra

9d00a9cc <_dinit_init>:
9d00a9cc:	3c049d01 	lui	a0,0x9d01
9d00a9d0:	2484b0cc 	addiu	a0,a0,-20276
9d00a9d4:	10800016 	beqz	a0,9d00aa30 <_dinit_init+0x64>
9d00a9d8:	00000000 	nop
9d00a9dc:	8c850000 	lw	a1,0(a0)
9d00a9e0:	10a00013 	beqz	a1,9d00aa30 <_dinit_init+0x64>
9d00a9e4:	24840004 	addiu	a0,a0,4
9d00a9e8:	8c860000 	lw	a2,0(a0)
9d00a9ec:	24840004 	addiu	a0,a0,4
9d00a9f0:	848b0000 	lh	t3,0(a0)
9d00a9f4:	24840004 	addiu	a0,a0,4
9d00a9f8:	3c0c9d01 	lui	t4,0x9d01
9d00a9fc:	258cb188 	addiu	t4,t4,-20088
9d00aa00:	000b5880 	sll	t3,t3,0x2
9d00aa04:	016c6021 	addu	t4,t3,t4
9d00aa08:	8d8c0000 	lw	t4,0(t4)
9d00aa0c:	0180f809 	jalr	t4
9d00aa10:	00000000 	nop
9d00aa14:	00402025 	move	a0,v0
9d00aa18:	24840003 	addiu	a0,a0,3
9d00aa1c:	2406fffc 	li	a2,-4
9d00aa20:	00c42024 	and	a0,a2,a0
9d00aa24:	8c850000 	lw	a1,0(a0)
9d00aa28:	14a0ffec 	bnez	a1,9d00a9dc <_dinit_init+0x10>
9d00aa2c:	00000000 	nop
9d00aa30:	0060f825 	move	ra,v1
9d00aa34:	03e00008 	jr	ra
9d00aa38:	00000000 	nop

Disassembly of section .text.atoi:

9d00aa3c <atoi>:
9d00aa3c:	24050020 	li	a1,32
9d00aa40:	80820000 	lb	v0,0(a0)
9d00aa44:	1045000d 	beq	v0,a1,9d00aa7c <atoi+0x40>
9d00aa48:	2443fff7 	addiu	v1,v0,-9
9d00aa4c:	2c630005 	sltiu	v1,v1,5
9d00aa50:	1460000a 	bnez	v1,9d00aa7c <atoi+0x40>
9d00aa54:	2403002b 	li	v1,43
9d00aa58:	1043000a 	beq	v0,v1,9d00aa84 <atoi+0x48>
9d00aa5c:	2403002d 	li	v1,45
9d00aa60:	14430003 	bne	v0,v1,9d00aa70 <atoi+0x34>
9d00aa64:	00002825 	move	a1,zero
9d00aa68:	24050001 	li	a1,1
9d00aa6c:	24840001 	addiu	a0,a0,1
9d00aa70:	00001025 	move	v0,zero
9d00aa74:	10000007 	b	9d00aa94 <atoi+0x58>
9d00aa78:	2407000a 	li	a3,10
9d00aa7c:	1000fff0 	b	9d00aa40 <atoi+0x4>
9d00aa80:	24840001 	addiu	a0,a0,1
9d00aa84:	1000fff9 	b	9d00aa6c <atoi+0x30>
9d00aa88:	00002825 	move	a1,zero
9d00aa8c:	24840001 	addiu	a0,a0,1
9d00aa90:	00431023 	subu	v0,v0,v1
9d00aa94:	80830000 	lb	v1,0(a0)
9d00aa98:	2463ffd0 	addiu	v1,v1,-48
9d00aa9c:	2c66000a 	sltiu	a2,v1,10
9d00aaa0:	54c0fffa 	bnezl	a2,9d00aa8c <atoi+0x50>
9d00aaa4:	70471002 	mul	v0,v0,a3
9d00aaa8:	50a00001 	beqzl	a1,9d00aab0 <atoi+0x74>
9d00aaac:	00021023 	negu	v0,v0
9d00aab0:	03e00008 	jr	ra
9d00aab4:	00000000 	nop

Disassembly of section .text.litodp:

9d00aab8 <__floatsidf>:
9d00aab8:	24050000 00054825 00053825 00043025     ...$%H..%8..%0..
9d00aac8:	10c0000c 00000000 04c10006 00000000     ................
9d00aad8:	3c098000 0005502b 00052823 00063023     ...<+P..#(..#0..
9d00aae8:	00ca3023                                #0..

9d00aaec <i40>:
9d00aaec:	2407041e 	li	a3,1054
9d00aaf0:	70c84020 	clz	t0,a2
9d00aaf4:	00e83823 	subu	a3,a3,t0
9d00aaf8:	01063004 	sllv	a2,a2,t0

9d00aafc <i39>:
9d00aafc:	000542c2 	srl	t0,a1,0xb
9d00ab00:	00065540 	sll	t2,a2,0x15
9d00ab04:	010a4025 	or	t0,t0,t2
9d00ab08:	00065040 	sll	t2,a2,0x1
9d00ab0c:	000a5302 	srl	t2,t2,0xc
9d00ab10:	012a4825 	or	t1,t1,t2
9d00ab14:	00075500 	sll	t2,a3,0x14
9d00ab18:	012a4825 	or	t1,t1,t2
9d00ab1c:	00081025 	or	v0,zero,t0
9d00ab20:	00091825 	or	v1,zero,t1

9d00ab24 <E999>:
9d00ab24:	03e00008 	jr	ra
9d00ab28:	00000000 	nop
9d00ab2c:	00000000 	nop

Disassembly of section .text:

9d00ab30 <__floatdidf>:
9d00ab30:	27bdffe0 	addiu	sp,sp,-32
9d00ab34:	afb20018 	sw	s2,24(sp)
9d00ab38:	00809025 	move	s2,a0
9d00ab3c:	00a02025 	move	a0,a1
9d00ab40:	afbf001c 	sw	ra,28(sp)
9d00ab44:	afb10014 	sw	s1,20(sp)
9d00ab48:	0f402aae 	jal	9d00aab8 <__floatsidf>
9d00ab4c:	afb00010 	sw	s0,16(sp)
9d00ab50:	3c049d00 	lui	a0,0x9d00
9d00ab54:	8c867508 	lw	a2,29960(a0)
9d00ab58:	8c87750c 	lw	a3,29964(a0)
9d00ab5c:	00602825 	move	a1,v1
9d00ab60:	0f4025d2 	jal	9d009748 <__muldf3>
9d00ab64:	00402025 	move	a0,v0
9d00ab68:	02402025 	move	a0,s2
9d00ab6c:	00408025 	move	s0,v0
9d00ab70:	0f402ba2 	jal	9d00ae88 <__floatunsidf>
9d00ab74:	00608825 	move	s1,v1
9d00ab78:	00402025 	move	a0,v0
9d00ab7c:	02003025 	move	a2,s0
9d00ab80:	02203825 	move	a3,s1
9d00ab84:	0f4023e4 	jal	9d008f90 <__adddf3>
9d00ab88:	00602825 	move	a1,v1
9d00ab8c:	8fbf001c 	lw	ra,28(sp)
9d00ab90:	8fb20018 	lw	s2,24(sp)
9d00ab94:	8fb10014 	lw	s1,20(sp)
9d00ab98:	8fb00010 	lw	s0,16(sp)
9d00ab9c:	03e00008 	jr	ra
9d00aba0:	27bd0020 	addiu	sp,sp,32

Disassembly of section .text.a_clz_64:

9d00aba4 <a_clz_64>:
9d00aba4:	24030020 	li	v1,32
9d00aba8:	00a5200b 	movn	a0,a1,a1
9d00abac:	0005180b 	movn	v1,zero,a1
9d00abb0:	00042c02 	srl	a1,a0,0x10
9d00abb4:	14a00004 	bnez	a1,9d00abc8 <a_clz_64+0x24>
9d00abb8:	00051202 	srl	v0,a1,0x8
9d00abbc:	34630010 	ori	v1,v1,0x10
9d00abc0:	00802825 	move	a1,a0
9d00abc4:	00051202 	srl	v0,a1,0x8
9d00abc8:	14400004 	bnez	v0,9d00abdc <a_clz_64+0x38>
9d00abcc:	00022102 	srl	a0,v0,0x4
9d00abd0:	34630008 	ori	v1,v1,0x8
9d00abd4:	00a01025 	move	v0,a1
9d00abd8:	00022102 	srl	a0,v0,0x4
9d00abdc:	54800004 	bnezl	a0,9d00abf0 <a_clz_64+0x4c>
9d00abe0:	00041082 	srl	v0,a0,0x2
9d00abe4:	34630004 	ori	v1,v1,0x4
9d00abe8:	00402025 	move	a0,v0
9d00abec:	00041082 	srl	v0,a0,0x2
9d00abf0:	54400004 	bnezl	v0,9d00ac04 <a_clz_64+0x60>
9d00abf4:	00021042 	srl	v0,v0,0x1
9d00abf8:	34630002 	ori	v1,v1,0x2
9d00abfc:	00801025 	move	v0,a0
9d00ac00:	00021042 	srl	v0,v0,0x1
9d00ac04:	38420001 	xori	v0,v0,0x1
9d00ac08:	03e00008 	jr	ra
9d00ac0c:	00431025 	or	v0,v0,v1

Disassembly of section .text.__string_out:

9d00ac10 <__out>:
9d00ac10:	8c820010 	lw	v0,16(a0)
9d00ac14:	27bdffe0 	addiu	sp,sp,-32
9d00ac18:	afb10018 	sw	s1,24(sp)
9d00ac1c:	00c2882b 	sltu	s1,a2,v0
9d00ac20:	0051300a 	movz	a2,v0,s1
9d00ac24:	afbf001c 	sw	ra,28(sp)
9d00ac28:	10c0000c 	beqz	a2,9d00ac5c <__out+0x4c>
9d00ac2c:	afb00014 	sw	s0,20(sp)
9d00ac30:	00808025 	move	s0,a0
9d00ac34:	8c840014 	lw	a0,20(a0)
9d00ac38:	0f402bf6 	jal	9d00afd8 <memcpy>
9d00ac3c:	00c08825 	move	s1,a2
9d00ac40:	8e020014 	lw	v0,20(s0)
9d00ac44:	8e060010 	lw	a2,16(s0)
9d00ac48:	00511021 	addu	v0,v0,s1
9d00ac4c:	00d18823 	subu	s1,a2,s1
9d00ac50:	ae020014 	sw	v0,20(s0)
9d00ac54:	ae110010 	sw	s1,16(s0)
9d00ac58:	a0400000 	sb	zero,0(v0)
9d00ac5c:	8fbf001c 	lw	ra,28(sp)
9d00ac60:	8fb10018 	lw	s1,24(sp)
9d00ac64:	8fb00014 	lw	s0,20(sp)
9d00ac68:	03e00008 	jr	ra
9d00ac6c:	27bd0020 	addiu	sp,sp,32

Disassembly of section .text.__fmt_state:

9d00ac70 <__fmt_state>:
9d00ac70:	3c069d01 	lui	a2,0x9d01
9d00ac74:	00001025 	move	v0,zero
9d00ac78:	24c6b158 	addiu	a2,a2,-20136
9d00ac7c:	00021840 	sll	v1,v0,0x1
9d00ac80:	00661821 	addu	v1,v1,a2
9d00ac84:	80670000 	lb	a3,0(v1)
9d00ac88:	54e00003 	bnezl	a3,9d00ac98 <__fmt_state+0x28>
9d00ac8c:	8c850000 	lw	a1,0(a0)
9d00ac90:	03e00008 	jr	ra
9d00ac94:	90620001 	lbu	v0,1(v1)
9d00ac98:	24420001 	addiu	v0,v0,1
9d00ac9c:	80a80000 	lb	t0,0(a1)
9d00aca0:	15070004 	bne	t0,a3,9d00acb4 <__fmt_state+0x44>
9d00aca4:	304200ff 	andi	v0,v0,0xff
9d00aca8:	90620001 	lbu	v0,1(v1)
9d00acac:	24a50001 	addiu	a1,a1,1
9d00acb0:	ac850000 	sw	a1,0(a0)
9d00acb4:	2c43000b 	sltiu	v1,v0,11
9d00acb8:	1460fff1 	bnez	v1,9d00ac80 <__fmt_state+0x10>
9d00acbc:	00021840 	sll	v1,v0,0x1
9d00acc0:	03e00008 	jr	ra
9d00acc4:	00000000 	nop

Disassembly of section .text.main_entry:

9d00acc8 <_main_entry>:
9d00acc8:	3c040000 	lui	a0,0x0
9d00accc:	27bdffe8 	addiu	sp,sp,-24
9d00acd0:	24840000 	addiu	a0,a0,0
9d00acd4:	10800003 	beqz	a0,9d00ace4 <_main_entry+0x1c>
9d00acd8:	afbf0014 	sw	ra,20(sp)
9d00acdc:	0080f809 	jalr	a0
9d00ace0:	00000000 	nop
9d00ace4:	30840000 	andi	a0,a0,0x0
9d00ace8:	30a50000 	andi	a1,a1,0x0
9d00acec:	3c089d01 	lui	t0,0x9d01
9d00acf0:	25089ca0 	addiu	t0,t0,-25440
9d00acf4:	0100f809 	jalr	t0
9d00acf8:	00000000 	nop

9d00acfc <__crt0_exit>:
9d00acfc:	3c020000 24420000 10400003 00000000     ...<..B$..@.....
9d00ad0c:	0040f809 00000000 1000fff9 00000000     ..@.............

Disassembly of section .text.__pop_float:

9d00ad1c <__pop_float>:
9d00ad1c:	28a30080 	slti	v1,a1,128
9d00ad20:	14600010 	bnez	v1,9d00ad64 <__pop_float+0x48>
9d00ad24:	00001025 	move	v0,zero
9d00ad28:	28a30082 	slti	v1,a1,130
9d00ad2c:	14600003 	bnez	v1,9d00ad3c <__pop_float+0x20>
9d00ad30:	24030083 	li	v1,131
9d00ad34:	14a3000b 	bne	a1,v1,9d00ad64 <__pop_float+0x48>
9d00ad38:	00000000 	nop
9d00ad3c:	8cc20000 	lw	v0,0(a2)
9d00ad40:	24420007 	addiu	v0,v0,7
9d00ad44:	7c021004 	ins	v0,zero,0x0,0x3
9d00ad48:	24430008 	addiu	v1,v0,8
9d00ad4c:	acc30000 	sw	v1,0(a2)
9d00ad50:	8c430004 	lw	v1,4(v0)
9d00ad54:	8c420000 	lw	v0,0(v0)
9d00ad58:	ac830004 	sw	v1,4(a0)
9d00ad5c:	ac820000 	sw	v0,0(a0)
9d00ad60:	24020001 	li	v0,1
9d00ad64:	03e00008 	jr	ra
9d00ad68:	00000000 	nop

Disassembly of section .text._bootstrap_exception_handler:

9d00ad6c <_bootstrap_exception_handler>:
9d00ad6c:	3c020000 	lui	v0,0x0
9d00ad70:	24420000 	addiu	v0,v0,0
9d00ad74:	10400005 	beqz	v0,9d00ad8c <_bootstrap_exception_handler+0x20>
9d00ad78:	3c020000 	lui	v0,0x0
9d00ad7c:	24420000 	addiu	v0,v0,0
9d00ad80:	10400003 	beqz	v0,9d00ad90 <_bootstrap_exception_handler+0x24>
9d00ad84:	3c029d01 	lui	v0,0x9d01
9d00ad88:	7000003f 	sdbbp
9d00ad8c:	3c029d01 	lui	v0,0x9d01
9d00ad90:	2442ae44 	addiu	v0,v0,-20924
9d00ad94:	10400005 	beqz	v0,9d00adac <_bootstrap_exception_handler+0x40>
9d00ad98:	00000000 	nop
9d00ad9c:	27bdffe8 	addiu	sp,sp,-24
9d00ada0:	afbf0014 	sw	ra,20(sp)
9d00ada4:	0040f809 	jalr	v0
9d00ada8:	00000000 	nop
9d00adac:	1000ffff 	b	9d00adac <_bootstrap_exception_handler+0x40>
9d00adb0:	00000000 	nop

Disassembly of section .text._general_exception_handler:

9d00adb4 <_general_exception_handler>:
9d00adb4:	3c020000 	lui	v0,0x0
9d00adb8:	24420000 	addiu	v0,v0,0
9d00adbc:	10400005 	beqz	v0,9d00add4 <_general_exception_handler+0x20>
9d00adc0:	3c020000 	lui	v0,0x0
9d00adc4:	24420000 	addiu	v0,v0,0
9d00adc8:	10400003 	beqz	v0,9d00add8 <_general_exception_handler+0x24>
9d00adcc:	3c029d01 	lui	v0,0x9d01
9d00add0:	7000003f 	sdbbp
9d00add4:	3c029d01 	lui	v0,0x9d01
9d00add8:	2442ae44 	addiu	v0,v0,-20924
9d00addc:	10400005 	beqz	v0,9d00adf4 <_general_exception_handler+0x40>
9d00ade0:	00000000 	nop
9d00ade4:	27bdffe8 	addiu	sp,sp,-24
9d00ade8:	afbf0014 	sw	ra,20(sp)
9d00adec:	0040f809 	jalr	v0
9d00adf0:	00000000 	nop
9d00adf4:	1000ffff 	b	9d00adf4 <_general_exception_handler+0x40>
9d00adf8:	00000000 	nop

Disassembly of section .vector_default:

9d00adfc <_DefaultInterrupt>:
9d00adfc:	3c020000 	lui	v0,0x0
9d00ae00:	24420000 	addiu	v0,v0,0
9d00ae04:	10400007 	beqz	v0,9d00ae24 <_DefaultInterrupt+0x28>
9d00ae08:	3c020000 	lui	v0,0x0
9d00ae0c:	24420000 	addiu	v0,v0,0
9d00ae10:	50400005 	beqzl	v0,9d00ae28 <_DefaultInterrupt+0x2c>
9d00ae14:	3c029d01 	lui	v0,0x9d01
9d00ae18:	7000003f 	sdbbp
9d00ae1c:	03e00008 	jr	ra
9d00ae20:	00000000 	nop
9d00ae24:	3c029d01 	lui	v0,0x9d01
9d00ae28:	2442ae44 	addiu	v0,v0,-20924
9d00ae2c:	10400003 	beqz	v0,9d00ae3c <_DefaultInterrupt+0x40>
9d00ae30:	00000000 	nop
9d00ae34:	0040f809 	jalr	v0
9d00ae38:	00000000 	nop
9d00ae3c:	03e00008 	jr	ra
9d00ae40:	00000000 	nop

Disassembly of section .text:

9d00ae44 <__pic32_software_reset>:
9d00ae44:	41606000 	di
9d00ae48:	000000c0 	ehb
9d00ae4c:	3c03aa99 	lui	v1,0xaa99
9d00ae50:	3c02bf81 	lui	v0,0xbf81
9d00ae54:	24636655 	addiu	v1,v1,26197
9d00ae58:	ac40f230 	sw	zero,-3536(v0)
9d00ae5c:	ac43f230 	sw	v1,-3536(v0)
9d00ae60:	3c035566 	lui	v1,0x5566
9d00ae64:	346399aa 	ori	v1,v1,0x99aa
9d00ae68:	ac43f230 	sw	v1,-3536(v0)
9d00ae6c:	3c02bf81 	lui	v0,0xbf81
9d00ae70:	24030001 	li	v1,1
9d00ae74:	ac43f618 	sw	v1,-2536(v0)
9d00ae78:	3c02bf81 	lui	v0,0xbf81
9d00ae7c:	8c42f610 	lw	v0,-2544(v0)
9d00ae80:	0b402b93 	j	9d00ae4c <__pic32_software_reset+0x8>
9d00ae84:	00000000 	nop

9d00ae88 <__floatunsidf>:
9d00ae88:	27bdffe8 	addiu	sp,sp,-24
9d00ae8c:	afb00010 	sw	s0,16(sp)
9d00ae90:	afbf0014 	sw	ra,20(sp)
9d00ae94:	0f402aae 	jal	9d00aab8 <__floatsidf>
9d00ae98:	00808025 	move	s0,a0
9d00ae9c:	06010006 	bgez	s0,9d00aeb8 <__floatunsidf+0x30>
9d00aea0:	00602825 	move	a1,v1
9d00aea4:	3c049d00 	lui	a0,0x9d00
9d00aea8:	8c867490 	lw	a2,29840(a0)
9d00aeac:	8c877494 	lw	a3,29844(a0)
9d00aeb0:	0f4023e4 	jal	9d008f90 <__adddf3>
9d00aeb4:	00402025 	move	a0,v0
9d00aeb8:	8fbf0014 	lw	ra,20(sp)
9d00aebc:	8fb00010 	lw	s0,16(sp)
9d00aec0:	03e00008 	jr	ra
9d00aec4:	27bd0018 	addiu	sp,sp,24

Disassembly of section .text.__vfprintf:

9d00aec8 <__vfprintf>:
9d00aec8:	27bdffe0 	addiu	sp,sp,-32
9d00aecc:	afb00018 	sw	s0,24(sp)
9d00aed0:	afa60010 	sw	a2,16(sp)
9d00aed4:	00808025 	move	s0,a0
9d00aed8:	afbf001c 	sw	ra,28(sp)
9d00aedc:	0f40214b 	jal	9d00852c <__printf_core>
9d00aee0:	27a60010 	addiu	a2,sp,16
9d00aee4:	8e030004 	lw	v1,4(s0)
9d00aee8:	8fbf001c 	lw	ra,28(sp)
9d00aeec:	2404ffff 	li	a0,-1
9d00aef0:	30630010 	andi	v1,v1,0x10
9d00aef4:	0083100b 	movn	v0,a0,v1
9d00aef8:	8fb00018 	lw	s0,24(sp)
9d00aefc:	03e00008 	jr	ra
9d00af00:	27bd0020 	addiu	sp,sp,32

Disassembly of section .text:

9d00af04 <__lshrdi3>:
9d00af04:	10c00008 	beqz	a2,9d00af28 <__lshrdi3+0x24>
9d00af08:	00801025 	move	v0,a0
9d00af0c:	24030020 	li	v1,32
9d00af10:	00661823 	subu	v1,v1,a2
9d00af14:	1c600006 	bgtz	v1,9d00af30 <__lshrdi3+0x2c>
9d00af18:	00c52006 	srlv	a0,a1,a2
9d00af1c:	00002025 	move	a0,zero
9d00af20:	00c51006 	srlv	v0,a1,a2
9d00af24:	00802825 	move	a1,a0
9d00af28:	03e00008 	jr	ra
9d00af2c:	00a01825 	move	v1,a1
9d00af30:	00c21006 	srlv	v0,v0,a2
9d00af34:	00652804 	sllv	a1,a1,v1
9d00af38:	1000fffa 	b	9d00af24 <__lshrdi3+0x20>
9d00af3c:	00451025 	or	v0,v0,a1

9d00af40 <__ashldi3>:
9d00af40:	10c00008 	beqz	a2,9d00af64 <__ashldi3+0x24>
9d00af44:	00801025 	move	v0,a0
9d00af48:	24040020 	li	a0,32
9d00af4c:	00862023 	subu	a0,a0,a2
9d00af50:	5c800006 	bgtzl	a0,9d00af6c <__ashldi3+0x2c>
9d00af54:	00c21804 	sllv	v1,v0,a2
9d00af58:	00001825 	move	v1,zero
9d00af5c:	00c22804 	sllv	a1,v0,a2
9d00af60:	00601025 	move	v0,v1
9d00af64:	03e00008 	jr	ra
9d00af68:	00a01825 	move	v1,a1
9d00af6c:	00c52804 	sllv	a1,a1,a2
9d00af70:	00821006 	srlv	v0,v0,a0
9d00af74:	1000fffa 	b	9d00af60 <__ashldi3+0x20>
9d00af78:	00a22825 	or	a1,a1,v0

Disassembly of section .text.strlen:

9d00af7c <strlen>:
9d00af7c:	80820000 	lb	v0,0(a0)
9d00af80:	10400008 	beqz	v0,9d00afa4 <strlen+0x28>
9d00af84:	00000000 	nop
9d00af88:	00801025 	move	v0,a0
9d00af8c:	24420001 	addiu	v0,v0,1
9d00af90:	80430000 	lb	v1,0(v0)
9d00af94:	5460fffe 	bnezl	v1,9d00af90 <strlen+0x14>
9d00af98:	24420001 	addiu	v0,v0,1
9d00af9c:	03e00008 	jr	ra
9d00afa0:	00441023 	subu	v0,v0,a0
9d00afa4:	03e00008 	jr	ra
9d00afa8:	00001025 	move	v0,zero

Disassembly of section .text.__sio_sprintf_eEfFgGn:

9d00afac <__sio_sprintf_eEfFgGn>:
9d00afac:	27bdffe8 	addiu	sp,sp,-24
9d00afb0:	afbf0014 	sw	ra,20(sp)
9d00afb4:	0f401d44 	jal	9d007510 <__fmt_fp>
9d00afb8:	00000000 	nop
9d00afbc:	0f402b47 	jal	9d00ad1c <__pop_float>
9d00afc0:	00000000 	nop
9d00afc4:	0f402945 	jal	9d00a514 <__pop_ptr>
9d00afc8:	00000000 	nop
9d00afcc:	8fbf0014 	lw	ra,20(sp)
9d00afd0:	03e00008 	jr	ra
9d00afd4:	27bd0018 	addiu	sp,sp,24

Disassembly of section .text.memcpy:

9d00afd8 <memcpy>:
9d00afd8:	10c00008 	beqz	a2,9d00affc <memcpy+0x24>
9d00afdc:	00801025 	move	v0,a0
9d00afe0:	00863021 	addu	a2,a0,a2
9d00afe4:	00801825 	move	v1,a0
9d00afe8:	24a50001 	addiu	a1,a1,1
9d00afec:	90a7ffff 	lbu	a3,-1(a1)
9d00aff0:	24630001 	addiu	v1,v1,1
9d00aff4:	1466fffc 	bne	v1,a2,9d00afe8 <memcpy+0x10>
9d00aff8:	a067ffff 	sb	a3,-1(v1)
9d00affc:	03e00008 	jr	ra
9d00b000:	00000000 	nop

Disassembly of section .text.__wrap_sprintf:

9d00b004 <_dsprintf_eEfFgGn>:
9d00b004:	27bdffe0 	addiu	sp,sp,-32
9d00b008:	afa60028 	sw	a2,40(sp)
9d00b00c:	27a60028 	addiu	a2,sp,40
9d00b010:	afbf001c 	sw	ra,28(sp)
9d00b014:	afa7002c 	sw	a3,44(sp)
9d00b018:	0f402c0b 	jal	9d00b02c <__vsprintf>
9d00b01c:	afa60010 	sw	a2,16(sp)
9d00b020:	8fbf001c 	lw	ra,28(sp)
9d00b024:	03e00008 	jr	ra
9d00b028:	27bd0020 	addiu	sp,sp,32

Disassembly of section .text.__vsprintf:

9d00b02c <__vsprintf>:
9d00b02c:	00c03825 	move	a3,a2
9d00b030:	00a03025 	move	a2,a1
9d00b034:	3c057fff 	lui	a1,0x7fff
9d00b038:	27bdffe8 	addiu	sp,sp,-24
9d00b03c:	afbf0014 	sw	ra,20(sp)
9d00b040:	0f402a50 	jal	9d00a940 <__vsnprintf>
9d00b044:	34a5ffff 	ori	a1,a1,0xffff
9d00b048:	8fbf0014 	lw	ra,20(sp)
9d00b04c:	03e00008 	jr	ra
9d00b050:	27bd0018 	addiu	sp,sp,24

Disassembly of section .text.memset:

9d00b054 <memset>:
9d00b054:	10c00007 	beqz	a2,9d00b074 <memset+0x20>
9d00b058:	00801025 	move	v0,a0
9d00b05c:	7c052c20 	seb	a1,a1
9d00b060:	00863021 	addu	a2,a0,a2
9d00b064:	00801825 	move	v1,a0
9d00b068:	24630001 	addiu	v1,v1,1
9d00b06c:	1466fffe 	bne	v1,a2,9d00b068 <memset+0x14>
9d00b070:	a065ffff 	sb	a1,-1(v1)
9d00b074:	03e00008 	jr	ra
9d00b078:	00000000 	nop

Disassembly of section .text.strcpy:

9d00b07c <strcpy>:
9d00b07c:	27bdffe8 	addiu	sp,sp,-24
9d00b080:	afb00010 	sw	s0,16(sp)
9d00b084:	afbf0014 	sw	ra,20(sp)
9d00b088:	0f402c29 	jal	9d00b0a4 <stpcpy>
9d00b08c:	00808025 	move	s0,a0
9d00b090:	8fbf0014 	lw	ra,20(sp)
9d00b094:	02001025 	move	v0,s0
9d00b098:	8fb00010 	lw	s0,16(sp)
9d00b09c:	03e00008 	jr	ra
9d00b0a0:	27bd0018 	addiu	sp,sp,24

Disassembly of section .text.stpcpy:

9d00b0a4 <stpcpy>:
9d00b0a4:	10000002 	b	9d00b0b0 <stpcpy+0xc>
9d00b0a8:	00801025 	move	v0,a0
9d00b0ac:	00c01025 	move	v0,a2
9d00b0b0:	24a50001 	addiu	a1,a1,1
9d00b0b4:	80a3ffff 	lb	v1,-1(a1)
9d00b0b8:	24460001 	addiu	a2,v0,1
9d00b0bc:	1460fffb 	bnez	v1,9d00b0ac <stpcpy+0x8>
9d00b0c0:	a0c3ffff 	sb	v1,-1(a2)
9d00b0c4:	03e00008 	jr	ra
9d00b0c8:	00000000 	nop

Disassembly of section .dinit:

9d00b0cc <.dinit>:
9d00b0cc:	a0000000 	sb	zero,0(zero)
9d00b0d0:	00000001 	movf	zero,zero,$fcc0
9d00b0d4:	00000000 	nop
9d00b0d8:	a0000004 	sb	zero,4(zero)
9d00b0dc:	00000004 	sllv	zero,zero,zero
	...
9d00b0e8:	66666666 	0x66666666

Disassembly of section .text.tolower:

9d00b0ec <tolower>:
9d00b0ec:	2483ffbf 	addiu	v1,a0,-65
9d00b0f0:	2c63001a 	sltiu	v1,v1,26
9d00b0f4:	10600002 	beqz	v1,9d00b100 <tolower+0x14>
9d00b0f8:	00801025 	move	v0,a0
9d00b0fc:	34820020 	ori	v0,a0,0x20
9d00b100:	03e00008 	jr	ra
9d00b104:	00000000 	nop

Disassembly of section .text.__tolower_l:

9d00b108 <__tolower_l>:
9d00b108:	27bdffe8 	addiu	sp,sp,-24
9d00b10c:	afbf0014 	sw	ra,20(sp)
9d00b110:	0f402c3b 	jal	9d00b0ec <tolower>
9d00b114:	00000000 	nop
9d00b118:	8fbf0014 	lw	ra,20(sp)
9d00b11c:	03e00008 	jr	ra
9d00b120:	27bd0018 	addiu	sp,sp,24

Disassembly of section .text:

9d00b140 <_nmi_handler>:
9d00b140:	401a6000 	mfc0	k0,c0_status
9d00b144:	3c1bffbf 	lui	k1,0xffbf
9d00b148:	377bffff 	ori	k1,k1,0xffff
9d00b14c:	035bd024 	and	k0,k0,k1
9d00b150:	409a6000 	mtc0	k0,c0_status
9d00b154:	42000018 	eret

Disassembly of section .rodata:

9d00b158 <state_table>:
9d00b158:	096c0768 906a834c c07aa074 88688000     h.l.L.j.t.z...h.
9d00b168:	826c8400 00008100                       ..l.....

Disassembly of section .text:

9d00b170 <__dinit_clear>:
9d00b170:	24c6ffff 	addiu	a2,a2,-1
9d00b174:	a0a00000 	sb	zero,0(a1)
9d00b178:	14c0fffd 	bnez	a2,9d00b170 <__dinit_clear>
9d00b17c:	24a50001 	addiu	a1,a1,1
9d00b180:	03e00008 	jr	ra
9d00b184:	00801025 	move	v0,a0

Disassembly of section .rodata:

9d00b188 <_dinit_func_table>:
9d00b188:	9d00b170 9d00a9c0 9d00a9c0 9d00a9c0     p...............
9d00b198:	9d00a9c0                                ....

Disassembly of section .text._on_reset:

9d00b19c <_on_reset>:
9d00b19c:	03e00008 	jr	ra
9d00b1a0:	00000000 	nop

Disassembly of section .text._on_bootstrap:

9d00b1a4 <_on_bootstrap>:
9d00b1a4:	03e00008 	jr	ra
9d00b1a8:	00000000 	nop

Disassembly of section .text.__dummy_fmt3:

9d00b1ac <__fmt_d>:
9d00b1ac:	03e00008 	jr	ra
9d00b1b0:	00001025 	move	v0,zero

Disassembly of section .text.__dummy_fmt4:

9d00b1b4 <__fmt_a>:
9d00b1b4:	03e00008 	jr	ra
9d00b1b8:	00001025 	move	v0,zero

Disassembly of section .text.__dummy_fmts:

9d00b1bc <__fmt_s>:
9d00b1bc:	03e00008 	jr	ra
9d00b1c0:	00001025 	move	v0,zero
